
build/hello_world.elf:     file format elf32-or1k


Disassembly of section .vectors:

00000000 <_or1k_reset-0x100>:
	...

00000100 <_or1k_reset>:
     100:	18 00 00 00 	l.movhi r0,0x0
     104:	18 20 00 00 	l.movhi r1,0x0
     108:	18 40 00 00 	l.movhi r2,0x0
     10c:	18 60 00 00 	l.movhi r3,0x0
     110:	18 80 00 00 	l.movhi r4,0x0
     114:	18 a0 00 00 	l.movhi r5,0x0
     118:	18 c0 00 00 	l.movhi r6,0x0
     11c:	18 e0 00 00 	l.movhi r7,0x0
     120:	19 00 00 00 	l.movhi r8,0x0
     124:	19 20 00 00 	l.movhi r9,0x0
     128:	19 40 00 00 	l.movhi r10,0x0
     12c:	19 60 00 00 	l.movhi r11,0x0
     130:	19 80 00 00 	l.movhi r12,0x0
     134:	19 a0 00 00 	l.movhi r13,0x0
     138:	19 c0 00 00 	l.movhi r14,0x0
     13c:	19 e0 00 00 	l.movhi r15,0x0
     140:	1a 00 00 00 	l.movhi r16,0x0
     144:	1a 20 00 00 	l.movhi r17,0x0
     148:	1a 40 00 00 	l.movhi r18,0x0
     14c:	1a 60 00 00 	l.movhi r19,0x0
     150:	1a 80 00 00 	l.movhi r20,0x0
     154:	1a a0 00 00 	l.movhi r21,0x0
     158:	1a c0 00 00 	l.movhi r22,0x0
     15c:	1a e0 00 00 	l.movhi r23,0x0
     160:	1b 00 00 00 	l.movhi r24,0x0
     164:	1b 20 00 00 	l.movhi r25,0x0
     168:	1b 40 00 00 	l.movhi r26,0x0
     16c:	1b 60 00 00 	l.movhi r27,0x0
     170:	1b 80 00 00 	l.movhi r28,0x0
     174:	1b a0 00 00 	l.movhi r29,0x0
     178:	1b c0 00 00 	l.movhi r30,0x0
     17c:	1b e0 00 00 	l.movhi r31,0x0
     180:	a8 20 00 01 	l.ori r1,r0,0x1
     184:	c0 00 08 11 	l.mtspr r0,r1,0x11
     188:	c1 40 00 00 	l.mtspr r0,r0,0x5000
     18c:	18 80 00 00 	l.movhi r4,0x0
     190:	a8 84 20 08 	l.ori r4,r4,0x2008
     194:	44 00 20 00 	l.jr r4
     198:	15 00 00 00 	l.nop 0x0
	...
     200:	d4 00 08 04 	l.sw 4(r0),r1
     204:	18 20 00 00 	l.movhi r1,0x0
     208:	a8 21 96 14 	l.ori r1,r1,0x9614
     20c:	84 21 00 00 	l.lwz r1,0(r1)
     210:	e4 01 00 00 	l.sfeq r1,r0
     214:	0c 00 00 06 	l.bnf 22c <_or1k_reset+0x12c>
     218:	15 00 00 00 	l.nop 0x0
     21c:	18 20 00 00 	l.movhi r1,0x0
     220:	a8 21 96 18 	l.ori r1,r1,0x9618
     224:	00 00 00 04 	l.j 234 <_or1k_reset+0x134>
     228:	84 21 00 00 	l.lwz r1,0(r1)
     22c:	84 20 00 04 	l.lwz r1,4(r0)
     230:	9c 21 ff 80 	l.addi r1,r1,-128
     234:	9c 21 ff 78 	l.addi r1,r1,-136
     238:	d4 01 18 0c 	l.sw 12(r1),r3
     23c:	84 60 00 04 	l.lwz r3,4(r0)
     240:	d4 01 18 04 	l.sw 4(r1),r3
     244:	d4 01 20 10 	l.sw 16(r1),r4
     248:	18 60 00 00 	l.movhi r3,0x0
     24c:	a8 63 96 14 	l.ori r3,r3,0x9614
     250:	84 83 00 00 	l.lwz r4,0(r3)
     254:	9c 84 00 01 	l.addi r4,r4,1
     258:	d4 03 20 00 	l.sw 0(r3),r4
     25c:	b4 60 00 10 	l.mfspr r3,r0,0x10
     260:	00 00 17 50 	l.j 5fa0 <_or1k_exception_handler>
     264:	b4 80 00 20 	l.mfspr r4,r0,0x20
	...
     300:	d4 00 08 04 	l.sw 4(r0),r1
     304:	18 20 00 00 	l.movhi r1,0x0
     308:	a8 21 96 14 	l.ori r1,r1,0x9614
     30c:	84 21 00 00 	l.lwz r1,0(r1)
     310:	e4 01 00 00 	l.sfeq r1,r0
     314:	0c 00 00 06 	l.bnf 32c <_or1k_reset+0x22c>
     318:	15 00 00 00 	l.nop 0x0
     31c:	18 20 00 00 	l.movhi r1,0x0
     320:	a8 21 96 18 	l.ori r1,r1,0x9618
     324:	00 00 00 04 	l.j 334 <_or1k_reset+0x234>
     328:	84 21 00 00 	l.lwz r1,0(r1)
     32c:	84 20 00 04 	l.lwz r1,4(r0)
     330:	9c 21 ff 80 	l.addi r1,r1,-128
     334:	9c 21 ff 78 	l.addi r1,r1,-136
     338:	d4 01 18 0c 	l.sw 12(r1),r3
     33c:	84 60 00 04 	l.lwz r3,4(r0)
     340:	d4 01 18 04 	l.sw 4(r1),r3
     344:	d4 01 20 10 	l.sw 16(r1),r4
     348:	18 60 00 00 	l.movhi r3,0x0
     34c:	a8 63 96 14 	l.ori r3,r3,0x9614
     350:	84 83 00 00 	l.lwz r4,0(r3)
     354:	9c 84 00 01 	l.addi r4,r4,1
     358:	d4 03 20 00 	l.sw 0(r3),r4
     35c:	b4 60 00 10 	l.mfspr r3,r0,0x10
     360:	00 00 17 10 	l.j 5fa0 <_or1k_exception_handler>
     364:	b4 80 00 20 	l.mfspr r4,r0,0x20
	...
     400:	d4 00 08 04 	l.sw 4(r0),r1
     404:	18 20 00 00 	l.movhi r1,0x0
     408:	a8 21 96 14 	l.ori r1,r1,0x9614
     40c:	84 21 00 00 	l.lwz r1,0(r1)
     410:	e4 01 00 00 	l.sfeq r1,r0
     414:	0c 00 00 06 	l.bnf 42c <_or1k_reset+0x32c>
     418:	15 00 00 00 	l.nop 0x0
     41c:	18 20 00 00 	l.movhi r1,0x0
     420:	a8 21 96 18 	l.ori r1,r1,0x9618
     424:	00 00 00 04 	l.j 434 <_or1k_reset+0x334>
     428:	84 21 00 00 	l.lwz r1,0(r1)
     42c:	84 20 00 04 	l.lwz r1,4(r0)
     430:	9c 21 ff 80 	l.addi r1,r1,-128
     434:	9c 21 ff 78 	l.addi r1,r1,-136
     438:	d4 01 18 0c 	l.sw 12(r1),r3
     43c:	84 60 00 04 	l.lwz r3,4(r0)
     440:	d4 01 18 04 	l.sw 4(r1),r3
     444:	d4 01 20 10 	l.sw 16(r1),r4
     448:	18 60 00 00 	l.movhi r3,0x0
     44c:	a8 63 96 14 	l.ori r3,r3,0x9614
     450:	84 83 00 00 	l.lwz r4,0(r3)
     454:	9c 84 00 01 	l.addi r4,r4,1
     458:	d4 03 20 00 	l.sw 0(r3),r4
     45c:	b4 60 00 10 	l.mfspr r3,r0,0x10
     460:	00 00 16 d0 	l.j 5fa0 <_or1k_exception_handler>
     464:	b4 80 00 20 	l.mfspr r4,r0,0x20
	...
     500:	d4 00 08 04 	l.sw 4(r0),r1
     504:	18 20 00 00 	l.movhi r1,0x0
     508:	a8 21 96 14 	l.ori r1,r1,0x9614
     50c:	84 21 00 00 	l.lwz r1,0(r1)
     510:	e4 01 00 00 	l.sfeq r1,r0
     514:	0c 00 00 06 	l.bnf 52c <_or1k_reset+0x42c>
     518:	15 00 00 00 	l.nop 0x0
     51c:	18 20 00 00 	l.movhi r1,0x0
     520:	a8 21 96 18 	l.ori r1,r1,0x9618
     524:	00 00 00 04 	l.j 534 <_or1k_reset+0x434>
     528:	84 21 00 00 	l.lwz r1,0(r1)
     52c:	84 20 00 04 	l.lwz r1,4(r0)
     530:	9c 21 ff 80 	l.addi r1,r1,-128
     534:	9c 21 ff 78 	l.addi r1,r1,-136
     538:	d4 01 18 0c 	l.sw 12(r1),r3
     53c:	84 60 00 04 	l.lwz r3,4(r0)
     540:	d4 01 18 04 	l.sw 4(r1),r3
     544:	d4 01 20 10 	l.sw 16(r1),r4
     548:	18 60 00 00 	l.movhi r3,0x0
     54c:	a8 63 96 14 	l.ori r3,r3,0x9614
     550:	84 83 00 00 	l.lwz r4,0(r3)
     554:	9c 84 00 01 	l.addi r4,r4,1
     558:	d4 03 20 00 	l.sw 0(r3),r4
     55c:	b4 60 00 10 	l.mfspr r3,r0,0x10
     560:	00 00 16 90 	l.j 5fa0 <_or1k_exception_handler>
     564:	b4 80 00 20 	l.mfspr r4,r0,0x20
	...
     600:	d4 00 08 04 	l.sw 4(r0),r1
     604:	18 20 00 00 	l.movhi r1,0x0
     608:	a8 21 96 14 	l.ori r1,r1,0x9614
     60c:	84 21 00 00 	l.lwz r1,0(r1)
     610:	e4 01 00 00 	l.sfeq r1,r0
     614:	0c 00 00 06 	l.bnf 62c <_or1k_reset+0x52c>
     618:	15 00 00 00 	l.nop 0x0
     61c:	18 20 00 00 	l.movhi r1,0x0
     620:	a8 21 96 18 	l.ori r1,r1,0x9618
     624:	00 00 00 04 	l.j 634 <_or1k_reset+0x534>
     628:	84 21 00 00 	l.lwz r1,0(r1)
     62c:	84 20 00 04 	l.lwz r1,4(r0)
     630:	9c 21 ff 80 	l.addi r1,r1,-128
     634:	9c 21 ff 78 	l.addi r1,r1,-136
     638:	d4 01 18 0c 	l.sw 12(r1),r3
     63c:	84 60 00 04 	l.lwz r3,4(r0)
     640:	d4 01 18 04 	l.sw 4(r1),r3
     644:	d4 01 20 10 	l.sw 16(r1),r4
     648:	18 60 00 00 	l.movhi r3,0x0
     64c:	a8 63 96 14 	l.ori r3,r3,0x9614
     650:	84 83 00 00 	l.lwz r4,0(r3)
     654:	9c 84 00 01 	l.addi r4,r4,1
     658:	d4 03 20 00 	l.sw 0(r3),r4
     65c:	b4 60 00 10 	l.mfspr r3,r0,0x10
     660:	00 00 16 50 	l.j 5fa0 <_or1k_exception_handler>
     664:	b4 80 00 20 	l.mfspr r4,r0,0x20
	...
     700:	d4 00 08 04 	l.sw 4(r0),r1
     704:	18 20 00 00 	l.movhi r1,0x0
     708:	a8 21 96 14 	l.ori r1,r1,0x9614
     70c:	84 21 00 00 	l.lwz r1,0(r1)
     710:	e4 01 00 00 	l.sfeq r1,r0
     714:	0c 00 00 06 	l.bnf 72c <_or1k_reset+0x62c>
     718:	15 00 00 00 	l.nop 0x0
     71c:	18 20 00 00 	l.movhi r1,0x0
     720:	a8 21 96 18 	l.ori r1,r1,0x9618
     724:	00 00 00 04 	l.j 734 <_or1k_reset+0x634>
     728:	84 21 00 00 	l.lwz r1,0(r1)
     72c:	84 20 00 04 	l.lwz r1,4(r0)
     730:	9c 21 ff 80 	l.addi r1,r1,-128
     734:	9c 21 ff 78 	l.addi r1,r1,-136
     738:	d4 01 18 0c 	l.sw 12(r1),r3
     73c:	84 60 00 04 	l.lwz r3,4(r0)
     740:	d4 01 18 04 	l.sw 4(r1),r3
     744:	d4 01 20 10 	l.sw 16(r1),r4
     748:	18 60 00 00 	l.movhi r3,0x0
     74c:	a8 63 96 14 	l.ori r3,r3,0x9614
     750:	84 83 00 00 	l.lwz r4,0(r3)
     754:	9c 84 00 01 	l.addi r4,r4,1
     758:	d4 03 20 00 	l.sw 0(r3),r4
     75c:	b4 60 00 10 	l.mfspr r3,r0,0x10
     760:	00 00 16 10 	l.j 5fa0 <_or1k_exception_handler>
     764:	b4 80 00 20 	l.mfspr r4,r0,0x20
	...
     800:	d4 00 08 04 	l.sw 4(r0),r1
     804:	18 20 00 00 	l.movhi r1,0x0
     808:	a8 21 96 14 	l.ori r1,r1,0x9614
     80c:	84 21 00 00 	l.lwz r1,0(r1)
     810:	e4 01 00 00 	l.sfeq r1,r0
     814:	0c 00 00 06 	l.bnf 82c <_or1k_reset+0x72c>
     818:	15 00 00 00 	l.nop 0x0
     81c:	18 20 00 00 	l.movhi r1,0x0
     820:	a8 21 96 18 	l.ori r1,r1,0x9618
     824:	00 00 00 04 	l.j 834 <_or1k_reset+0x734>
     828:	84 21 00 00 	l.lwz r1,0(r1)
     82c:	84 20 00 04 	l.lwz r1,4(r0)
     830:	9c 21 ff 80 	l.addi r1,r1,-128
     834:	9c 21 ff 78 	l.addi r1,r1,-136
     838:	d4 01 18 0c 	l.sw 12(r1),r3
     83c:	84 60 00 04 	l.lwz r3,4(r0)
     840:	d4 01 18 04 	l.sw 4(r1),r3
     844:	d4 01 20 10 	l.sw 16(r1),r4
     848:	18 60 00 00 	l.movhi r3,0x0
     84c:	a8 63 96 14 	l.ori r3,r3,0x9614
     850:	84 83 00 00 	l.lwz r4,0(r3)
     854:	9c 84 00 01 	l.addi r4,r4,1
     858:	d4 03 20 00 	l.sw 0(r3),r4
     85c:	b4 60 00 10 	l.mfspr r3,r0,0x10
     860:	00 00 15 d0 	l.j 5fa0 <_or1k_exception_handler>
     864:	b4 80 00 20 	l.mfspr r4,r0,0x20
	...
     900:	d4 00 08 04 	l.sw 4(r0),r1
     904:	18 20 00 00 	l.movhi r1,0x0
     908:	a8 21 96 14 	l.ori r1,r1,0x9614
     90c:	84 21 00 00 	l.lwz r1,0(r1)
     910:	e4 01 00 00 	l.sfeq r1,r0
     914:	0c 00 00 06 	l.bnf 92c <_or1k_reset+0x82c>
     918:	15 00 00 00 	l.nop 0x0
     91c:	18 20 00 00 	l.movhi r1,0x0
     920:	a8 21 96 18 	l.ori r1,r1,0x9618
     924:	00 00 00 04 	l.j 934 <_or1k_reset+0x834>
     928:	84 21 00 00 	l.lwz r1,0(r1)
     92c:	84 20 00 04 	l.lwz r1,4(r0)
     930:	9c 21 ff 80 	l.addi r1,r1,-128
     934:	9c 21 ff 78 	l.addi r1,r1,-136
     938:	d4 01 18 0c 	l.sw 12(r1),r3
     93c:	84 60 00 04 	l.lwz r3,4(r0)
     940:	d4 01 18 04 	l.sw 4(r1),r3
     944:	d4 01 20 10 	l.sw 16(r1),r4
     948:	18 60 00 00 	l.movhi r3,0x0
     94c:	a8 63 96 14 	l.ori r3,r3,0x9614
     950:	84 83 00 00 	l.lwz r4,0(r3)
     954:	9c 84 00 01 	l.addi r4,r4,1
     958:	d4 03 20 00 	l.sw 0(r3),r4
     95c:	b4 60 00 10 	l.mfspr r3,r0,0x10
     960:	00 00 15 90 	l.j 5fa0 <_or1k_exception_handler>
     964:	b4 80 00 20 	l.mfspr r4,r0,0x20
	...
     a00:	d4 00 08 04 	l.sw 4(r0),r1
     a04:	18 20 00 00 	l.movhi r1,0x0
     a08:	a8 21 96 14 	l.ori r1,r1,0x9614
     a0c:	84 21 00 00 	l.lwz r1,0(r1)
     a10:	e4 01 00 00 	l.sfeq r1,r0
     a14:	0c 00 00 06 	l.bnf a2c <_or1k_reset+0x92c>
     a18:	15 00 00 00 	l.nop 0x0
     a1c:	18 20 00 00 	l.movhi r1,0x0
     a20:	a8 21 96 18 	l.ori r1,r1,0x9618
     a24:	00 00 00 04 	l.j a34 <_or1k_reset+0x934>
     a28:	84 21 00 00 	l.lwz r1,0(r1)
     a2c:	84 20 00 04 	l.lwz r1,4(r0)
     a30:	9c 21 ff 80 	l.addi r1,r1,-128
     a34:	9c 21 ff 78 	l.addi r1,r1,-136
     a38:	d4 01 18 0c 	l.sw 12(r1),r3
     a3c:	84 60 00 04 	l.lwz r3,4(r0)
     a40:	d4 01 18 04 	l.sw 4(r1),r3
     a44:	d4 01 20 10 	l.sw 16(r1),r4
     a48:	18 60 00 00 	l.movhi r3,0x0
     a4c:	a8 63 96 14 	l.ori r3,r3,0x9614
     a50:	84 83 00 00 	l.lwz r4,0(r3)
     a54:	9c 84 00 01 	l.addi r4,r4,1
     a58:	d4 03 20 00 	l.sw 0(r3),r4
     a5c:	b4 60 00 10 	l.mfspr r3,r0,0x10
     a60:	00 00 15 50 	l.j 5fa0 <_or1k_exception_handler>
     a64:	b4 80 00 20 	l.mfspr r4,r0,0x20
	...
     b00:	d4 00 08 04 	l.sw 4(r0),r1
     b04:	18 20 00 00 	l.movhi r1,0x0
     b08:	a8 21 96 14 	l.ori r1,r1,0x9614
     b0c:	84 21 00 00 	l.lwz r1,0(r1)
     b10:	e4 01 00 00 	l.sfeq r1,r0
     b14:	0c 00 00 06 	l.bnf b2c <_or1k_reset+0xa2c>
     b18:	15 00 00 00 	l.nop 0x0
     b1c:	18 20 00 00 	l.movhi r1,0x0
     b20:	a8 21 96 18 	l.ori r1,r1,0x9618
     b24:	00 00 00 04 	l.j b34 <_or1k_reset+0xa34>
     b28:	84 21 00 00 	l.lwz r1,0(r1)
     b2c:	84 20 00 04 	l.lwz r1,4(r0)
     b30:	9c 21 ff 80 	l.addi r1,r1,-128
     b34:	9c 21 ff 78 	l.addi r1,r1,-136
     b38:	d4 01 18 0c 	l.sw 12(r1),r3
     b3c:	84 60 00 04 	l.lwz r3,4(r0)
     b40:	d4 01 18 04 	l.sw 4(r1),r3
     b44:	d4 01 20 10 	l.sw 16(r1),r4
     b48:	18 60 00 00 	l.movhi r3,0x0
     b4c:	a8 63 96 14 	l.ori r3,r3,0x9614
     b50:	84 83 00 00 	l.lwz r4,0(r3)
     b54:	9c 84 00 01 	l.addi r4,r4,1
     b58:	d4 03 20 00 	l.sw 0(r3),r4
     b5c:	b4 60 00 10 	l.mfspr r3,r0,0x10
     b60:	00 00 15 10 	l.j 5fa0 <_or1k_exception_handler>
     b64:	b4 80 00 20 	l.mfspr r4,r0,0x20
	...
     c00:	d4 00 08 04 	l.sw 4(r0),r1
     c04:	18 20 00 00 	l.movhi r1,0x0
     c08:	a8 21 96 14 	l.ori r1,r1,0x9614
     c0c:	84 21 00 00 	l.lwz r1,0(r1)
     c10:	e4 01 00 00 	l.sfeq r1,r0
     c14:	0c 00 00 06 	l.bnf c2c <_or1k_reset+0xb2c>
     c18:	15 00 00 00 	l.nop 0x0
     c1c:	18 20 00 00 	l.movhi r1,0x0
     c20:	a8 21 96 18 	l.ori r1,r1,0x9618
     c24:	00 00 00 04 	l.j c34 <_or1k_reset+0xb34>
     c28:	84 21 00 00 	l.lwz r1,0(r1)
     c2c:	84 20 00 04 	l.lwz r1,4(r0)
     c30:	9c 21 ff 80 	l.addi r1,r1,-128
     c34:	9c 21 ff 78 	l.addi r1,r1,-136
     c38:	d4 01 18 0c 	l.sw 12(r1),r3
     c3c:	84 60 00 04 	l.lwz r3,4(r0)
     c40:	d4 01 18 04 	l.sw 4(r1),r3
     c44:	d4 01 20 10 	l.sw 16(r1),r4
     c48:	18 60 00 00 	l.movhi r3,0x0
     c4c:	a8 63 96 14 	l.ori r3,r3,0x9614
     c50:	84 83 00 00 	l.lwz r4,0(r3)
     c54:	9c 84 00 01 	l.addi r4,r4,1
     c58:	d4 03 20 00 	l.sw 0(r3),r4
     c5c:	b4 60 00 10 	l.mfspr r3,r0,0x10
     c60:	00 00 14 d0 	l.j 5fa0 <_or1k_exception_handler>
     c64:	b4 80 00 20 	l.mfspr r4,r0,0x20
	...
     d00:	d4 00 08 04 	l.sw 4(r0),r1
     d04:	18 20 00 00 	l.movhi r1,0x0
     d08:	a8 21 96 14 	l.ori r1,r1,0x9614
     d0c:	84 21 00 00 	l.lwz r1,0(r1)
     d10:	e4 01 00 00 	l.sfeq r1,r0
     d14:	0c 00 00 06 	l.bnf d2c <_or1k_reset+0xc2c>
     d18:	15 00 00 00 	l.nop 0x0
     d1c:	18 20 00 00 	l.movhi r1,0x0
     d20:	a8 21 96 18 	l.ori r1,r1,0x9618
     d24:	00 00 00 04 	l.j d34 <_or1k_reset+0xc34>
     d28:	84 21 00 00 	l.lwz r1,0(r1)
     d2c:	84 20 00 04 	l.lwz r1,4(r0)
     d30:	9c 21 ff 80 	l.addi r1,r1,-128
     d34:	9c 21 ff 78 	l.addi r1,r1,-136
     d38:	d4 01 18 0c 	l.sw 12(r1),r3
     d3c:	84 60 00 04 	l.lwz r3,4(r0)
     d40:	d4 01 18 04 	l.sw 4(r1),r3
     d44:	d4 01 20 10 	l.sw 16(r1),r4
     d48:	18 60 00 00 	l.movhi r3,0x0
     d4c:	a8 63 96 14 	l.ori r3,r3,0x9614
     d50:	84 83 00 00 	l.lwz r4,0(r3)
     d54:	9c 84 00 01 	l.addi r4,r4,1
     d58:	d4 03 20 00 	l.sw 0(r3),r4
     d5c:	b4 60 00 10 	l.mfspr r3,r0,0x10
     d60:	00 00 14 90 	l.j 5fa0 <_or1k_exception_handler>
     d64:	b4 80 00 20 	l.mfspr r4,r0,0x20
	...
     e00:	d4 00 08 04 	l.sw 4(r0),r1
     e04:	18 20 00 00 	l.movhi r1,0x0
     e08:	a8 21 96 14 	l.ori r1,r1,0x9614
     e0c:	84 21 00 00 	l.lwz r1,0(r1)
     e10:	e4 01 00 00 	l.sfeq r1,r0
     e14:	0c 00 00 06 	l.bnf e2c <_or1k_reset+0xd2c>
     e18:	15 00 00 00 	l.nop 0x0
     e1c:	18 20 00 00 	l.movhi r1,0x0
     e20:	a8 21 96 18 	l.ori r1,r1,0x9618
     e24:	00 00 00 04 	l.j e34 <_or1k_reset+0xd34>
     e28:	84 21 00 00 	l.lwz r1,0(r1)
     e2c:	84 20 00 04 	l.lwz r1,4(r0)
     e30:	9c 21 ff 80 	l.addi r1,r1,-128
     e34:	9c 21 ff 78 	l.addi r1,r1,-136
     e38:	d4 01 18 0c 	l.sw 12(r1),r3
     e3c:	84 60 00 04 	l.lwz r3,4(r0)
     e40:	d4 01 18 04 	l.sw 4(r1),r3
     e44:	d4 01 20 10 	l.sw 16(r1),r4
     e48:	18 60 00 00 	l.movhi r3,0x0
     e4c:	a8 63 96 14 	l.ori r3,r3,0x9614
     e50:	84 83 00 00 	l.lwz r4,0(r3)
     e54:	9c 84 00 01 	l.addi r4,r4,1
     e58:	d4 03 20 00 	l.sw 0(r3),r4
     e5c:	b4 60 00 10 	l.mfspr r3,r0,0x10
     e60:	00 00 14 50 	l.j 5fa0 <_or1k_exception_handler>
     e64:	b4 80 00 20 	l.mfspr r4,r0,0x20
	...
     f00:	d4 00 08 04 	l.sw 4(r0),r1
     f04:	18 20 00 00 	l.movhi r1,0x0
     f08:	a8 21 96 14 	l.ori r1,r1,0x9614
     f0c:	84 21 00 00 	l.lwz r1,0(r1)
     f10:	e4 01 00 00 	l.sfeq r1,r0
     f14:	0c 00 00 06 	l.bnf f2c <_or1k_reset+0xe2c>
     f18:	15 00 00 00 	l.nop 0x0
     f1c:	18 20 00 00 	l.movhi r1,0x0
     f20:	a8 21 96 18 	l.ori r1,r1,0x9618
     f24:	00 00 00 04 	l.j f34 <_or1k_reset+0xe34>
     f28:	84 21 00 00 	l.lwz r1,0(r1)
     f2c:	84 20 00 04 	l.lwz r1,4(r0)
     f30:	9c 21 ff 80 	l.addi r1,r1,-128
     f34:	9c 21 ff 78 	l.addi r1,r1,-136
     f38:	d4 01 18 0c 	l.sw 12(r1),r3
     f3c:	84 60 00 04 	l.lwz r3,4(r0)
     f40:	d4 01 18 04 	l.sw 4(r1),r3
     f44:	d4 01 20 10 	l.sw 16(r1),r4
     f48:	18 60 00 00 	l.movhi r3,0x0
     f4c:	a8 63 96 14 	l.ori r3,r3,0x9614
     f50:	84 83 00 00 	l.lwz r4,0(r3)
     f54:	9c 84 00 01 	l.addi r4,r4,1
     f58:	d4 03 20 00 	l.sw 0(r3),r4
     f5c:	b4 60 00 10 	l.mfspr r3,r0,0x10
     f60:	00 00 14 10 	l.j 5fa0 <_or1k_exception_handler>
     f64:	b4 80 00 20 	l.mfspr r4,r0,0x20
	...
    1000:	d4 00 08 04 	l.sw 4(r0),r1
    1004:	18 20 00 00 	l.movhi r1,0x0
    1008:	a8 21 96 14 	l.ori r1,r1,0x9614
    100c:	84 21 00 00 	l.lwz r1,0(r1)
    1010:	e4 01 00 00 	l.sfeq r1,r0
    1014:	0c 00 00 06 	l.bnf 102c <_or1k_reset+0xf2c>
    1018:	15 00 00 00 	l.nop 0x0
    101c:	18 20 00 00 	l.movhi r1,0x0
    1020:	a8 21 96 18 	l.ori r1,r1,0x9618
    1024:	00 00 00 04 	l.j 1034 <_or1k_reset+0xf34>
    1028:	84 21 00 00 	l.lwz r1,0(r1)
    102c:	84 20 00 04 	l.lwz r1,4(r0)
    1030:	9c 21 ff 80 	l.addi r1,r1,-128
    1034:	9c 21 ff 78 	l.addi r1,r1,-136
    1038:	d4 01 18 0c 	l.sw 12(r1),r3
    103c:	84 60 00 04 	l.lwz r3,4(r0)
    1040:	d4 01 18 04 	l.sw 4(r1),r3
    1044:	d4 01 20 10 	l.sw 16(r1),r4
    1048:	18 60 00 00 	l.movhi r3,0x0
    104c:	a8 63 96 14 	l.ori r3,r3,0x9614
    1050:	84 83 00 00 	l.lwz r4,0(r3)
    1054:	9c 84 00 01 	l.addi r4,r4,1
    1058:	d4 03 20 00 	l.sw 0(r3),r4
    105c:	b4 60 00 10 	l.mfspr r3,r0,0x10
    1060:	00 00 13 d0 	l.j 5fa0 <_or1k_exception_handler>
    1064:	b4 80 00 20 	l.mfspr r4,r0,0x20
	...
    1100:	d4 00 08 04 	l.sw 4(r0),r1
    1104:	18 20 00 00 	l.movhi r1,0x0
    1108:	a8 21 96 14 	l.ori r1,r1,0x9614
    110c:	84 21 00 00 	l.lwz r1,0(r1)
    1110:	e4 01 00 00 	l.sfeq r1,r0
    1114:	0c 00 00 06 	l.bnf 112c <_or1k_reset+0x102c>
    1118:	15 00 00 00 	l.nop 0x0
    111c:	18 20 00 00 	l.movhi r1,0x0
    1120:	a8 21 96 18 	l.ori r1,r1,0x9618
    1124:	00 00 00 04 	l.j 1134 <_or1k_reset+0x1034>
    1128:	84 21 00 00 	l.lwz r1,0(r1)
    112c:	84 20 00 04 	l.lwz r1,4(r0)
    1130:	9c 21 ff 80 	l.addi r1,r1,-128
    1134:	9c 21 ff 78 	l.addi r1,r1,-136
    1138:	d4 01 18 0c 	l.sw 12(r1),r3
    113c:	84 60 00 04 	l.lwz r3,4(r0)
    1140:	d4 01 18 04 	l.sw 4(r1),r3
    1144:	d4 01 20 10 	l.sw 16(r1),r4
    1148:	18 60 00 00 	l.movhi r3,0x0
    114c:	a8 63 96 14 	l.ori r3,r3,0x9614
    1150:	84 83 00 00 	l.lwz r4,0(r3)
    1154:	9c 84 00 01 	l.addi r4,r4,1
    1158:	d4 03 20 00 	l.sw 0(r3),r4
    115c:	b4 60 00 10 	l.mfspr r3,r0,0x10
    1160:	00 00 13 90 	l.j 5fa0 <_or1k_exception_handler>
    1164:	b4 80 00 20 	l.mfspr r4,r0,0x20
	...
    1200:	d4 00 08 04 	l.sw 4(r0),r1
    1204:	18 20 00 00 	l.movhi r1,0x0
    1208:	a8 21 96 14 	l.ori r1,r1,0x9614
    120c:	84 21 00 00 	l.lwz r1,0(r1)
    1210:	e4 01 00 00 	l.sfeq r1,r0
    1214:	0c 00 00 06 	l.bnf 122c <_or1k_reset+0x112c>
    1218:	15 00 00 00 	l.nop 0x0
    121c:	18 20 00 00 	l.movhi r1,0x0
    1220:	a8 21 96 18 	l.ori r1,r1,0x9618
    1224:	00 00 00 04 	l.j 1234 <_or1k_reset+0x1134>
    1228:	84 21 00 00 	l.lwz r1,0(r1)
    122c:	84 20 00 04 	l.lwz r1,4(r0)
    1230:	9c 21 ff 80 	l.addi r1,r1,-128
    1234:	9c 21 ff 78 	l.addi r1,r1,-136
    1238:	d4 01 18 0c 	l.sw 12(r1),r3
    123c:	84 60 00 04 	l.lwz r3,4(r0)
    1240:	d4 01 18 04 	l.sw 4(r1),r3
    1244:	d4 01 20 10 	l.sw 16(r1),r4
    1248:	18 60 00 00 	l.movhi r3,0x0
    124c:	a8 63 96 14 	l.ori r3,r3,0x9614
    1250:	84 83 00 00 	l.lwz r4,0(r3)
    1254:	9c 84 00 01 	l.addi r4,r4,1
    1258:	d4 03 20 00 	l.sw 0(r3),r4
    125c:	b4 60 00 10 	l.mfspr r3,r0,0x10
    1260:	00 00 13 50 	l.j 5fa0 <_or1k_exception_handler>
    1264:	b4 80 00 20 	l.mfspr r4,r0,0x20
	...
    1300:	d4 00 08 04 	l.sw 4(r0),r1
    1304:	18 20 00 00 	l.movhi r1,0x0
    1308:	a8 21 96 14 	l.ori r1,r1,0x9614
    130c:	84 21 00 00 	l.lwz r1,0(r1)
    1310:	e4 01 00 00 	l.sfeq r1,r0
    1314:	0c 00 00 06 	l.bnf 132c <_or1k_reset+0x122c>
    1318:	15 00 00 00 	l.nop 0x0
    131c:	18 20 00 00 	l.movhi r1,0x0
    1320:	a8 21 96 18 	l.ori r1,r1,0x9618
    1324:	00 00 00 04 	l.j 1334 <_or1k_reset+0x1234>
    1328:	84 21 00 00 	l.lwz r1,0(r1)
    132c:	84 20 00 04 	l.lwz r1,4(r0)
    1330:	9c 21 ff 80 	l.addi r1,r1,-128
    1334:	9c 21 ff 78 	l.addi r1,r1,-136
    1338:	d4 01 18 0c 	l.sw 12(r1),r3
    133c:	84 60 00 04 	l.lwz r3,4(r0)
    1340:	d4 01 18 04 	l.sw 4(r1),r3
    1344:	d4 01 20 10 	l.sw 16(r1),r4
    1348:	18 60 00 00 	l.movhi r3,0x0
    134c:	a8 63 96 14 	l.ori r3,r3,0x9614
    1350:	84 83 00 00 	l.lwz r4,0(r3)
    1354:	9c 84 00 01 	l.addi r4,r4,1
    1358:	d4 03 20 00 	l.sw 0(r3),r4
    135c:	b4 60 00 10 	l.mfspr r3,r0,0x10
    1360:	00 00 13 10 	l.j 5fa0 <_or1k_exception_handler>
    1364:	b4 80 00 20 	l.mfspr r4,r0,0x20
	...
    1400:	d4 00 08 04 	l.sw 4(r0),r1
    1404:	18 20 00 00 	l.movhi r1,0x0
    1408:	a8 21 96 14 	l.ori r1,r1,0x9614
    140c:	84 21 00 00 	l.lwz r1,0(r1)
    1410:	e4 01 00 00 	l.sfeq r1,r0
    1414:	0c 00 00 06 	l.bnf 142c <_or1k_reset+0x132c>
    1418:	15 00 00 00 	l.nop 0x0
    141c:	18 20 00 00 	l.movhi r1,0x0
    1420:	a8 21 96 18 	l.ori r1,r1,0x9618
    1424:	00 00 00 04 	l.j 1434 <_or1k_reset+0x1334>
    1428:	84 21 00 00 	l.lwz r1,0(r1)
    142c:	84 20 00 04 	l.lwz r1,4(r0)
    1430:	9c 21 ff 80 	l.addi r1,r1,-128
    1434:	9c 21 ff 78 	l.addi r1,r1,-136
    1438:	d4 01 18 0c 	l.sw 12(r1),r3
    143c:	84 60 00 04 	l.lwz r3,4(r0)
    1440:	d4 01 18 04 	l.sw 4(r1),r3
    1444:	d4 01 20 10 	l.sw 16(r1),r4
    1448:	18 60 00 00 	l.movhi r3,0x0
    144c:	a8 63 96 14 	l.ori r3,r3,0x9614
    1450:	84 83 00 00 	l.lwz r4,0(r3)
    1454:	9c 84 00 01 	l.addi r4,r4,1
    1458:	d4 03 20 00 	l.sw 0(r3),r4
    145c:	b4 60 00 10 	l.mfspr r3,r0,0x10
    1460:	00 00 12 d0 	l.j 5fa0 <_or1k_exception_handler>
    1464:	b4 80 00 20 	l.mfspr r4,r0,0x20
	...
    1500:	d4 00 08 04 	l.sw 4(r0),r1
    1504:	18 20 00 00 	l.movhi r1,0x0
    1508:	a8 21 96 14 	l.ori r1,r1,0x9614
    150c:	84 21 00 00 	l.lwz r1,0(r1)
    1510:	e4 01 00 00 	l.sfeq r1,r0
    1514:	0c 00 00 06 	l.bnf 152c <_or1k_reset+0x142c>
    1518:	15 00 00 00 	l.nop 0x0
    151c:	18 20 00 00 	l.movhi r1,0x0
    1520:	a8 21 96 18 	l.ori r1,r1,0x9618
    1524:	00 00 00 04 	l.j 1534 <_or1k_reset+0x1434>
    1528:	84 21 00 00 	l.lwz r1,0(r1)
    152c:	84 20 00 04 	l.lwz r1,4(r0)
    1530:	9c 21 ff 80 	l.addi r1,r1,-128
    1534:	9c 21 ff 78 	l.addi r1,r1,-136
    1538:	d4 01 18 0c 	l.sw 12(r1),r3
    153c:	84 60 00 04 	l.lwz r3,4(r0)
    1540:	d4 01 18 04 	l.sw 4(r1),r3
    1544:	d4 01 20 10 	l.sw 16(r1),r4
    1548:	18 60 00 00 	l.movhi r3,0x0
    154c:	a8 63 96 14 	l.ori r3,r3,0x9614
    1550:	84 83 00 00 	l.lwz r4,0(r3)
    1554:	9c 84 00 01 	l.addi r4,r4,1
    1558:	d4 03 20 00 	l.sw 0(r3),r4
    155c:	b4 60 00 10 	l.mfspr r3,r0,0x10
    1560:	00 00 12 90 	l.j 5fa0 <_or1k_exception_handler>
    1564:	b4 80 00 20 	l.mfspr r4,r0,0x20
	...
    1600:	d4 00 08 04 	l.sw 4(r0),r1
    1604:	18 20 00 00 	l.movhi r1,0x0
    1608:	a8 21 96 14 	l.ori r1,r1,0x9614
    160c:	84 21 00 00 	l.lwz r1,0(r1)
    1610:	e4 01 00 00 	l.sfeq r1,r0
    1614:	0c 00 00 06 	l.bnf 162c <_or1k_reset+0x152c>
    1618:	15 00 00 00 	l.nop 0x0
    161c:	18 20 00 00 	l.movhi r1,0x0
    1620:	a8 21 96 18 	l.ori r1,r1,0x9618
    1624:	00 00 00 04 	l.j 1634 <_or1k_reset+0x1534>
    1628:	84 21 00 00 	l.lwz r1,0(r1)
    162c:	84 20 00 04 	l.lwz r1,4(r0)
    1630:	9c 21 ff 80 	l.addi r1,r1,-128
    1634:	9c 21 ff 78 	l.addi r1,r1,-136
    1638:	d4 01 18 0c 	l.sw 12(r1),r3
    163c:	84 60 00 04 	l.lwz r3,4(r0)
    1640:	d4 01 18 04 	l.sw 4(r1),r3
    1644:	d4 01 20 10 	l.sw 16(r1),r4
    1648:	18 60 00 00 	l.movhi r3,0x0
    164c:	a8 63 96 14 	l.ori r3,r3,0x9614
    1650:	84 83 00 00 	l.lwz r4,0(r3)
    1654:	9c 84 00 01 	l.addi r4,r4,1
    1658:	d4 03 20 00 	l.sw 0(r3),r4
    165c:	b4 60 00 10 	l.mfspr r3,r0,0x10
    1660:	00 00 12 50 	l.j 5fa0 <_or1k_exception_handler>
    1664:	b4 80 00 20 	l.mfspr r4,r0,0x20
	...
    1700:	d4 00 08 04 	l.sw 4(r0),r1
    1704:	18 20 00 00 	l.movhi r1,0x0
    1708:	a8 21 96 14 	l.ori r1,r1,0x9614
    170c:	84 21 00 00 	l.lwz r1,0(r1)
    1710:	e4 01 00 00 	l.sfeq r1,r0
    1714:	0c 00 00 06 	l.bnf 172c <_or1k_reset+0x162c>
    1718:	15 00 00 00 	l.nop 0x0
    171c:	18 20 00 00 	l.movhi r1,0x0
    1720:	a8 21 96 18 	l.ori r1,r1,0x9618
    1724:	00 00 00 04 	l.j 1734 <_or1k_reset+0x1634>
    1728:	84 21 00 00 	l.lwz r1,0(r1)
    172c:	84 20 00 04 	l.lwz r1,4(r0)
    1730:	9c 21 ff 80 	l.addi r1,r1,-128
    1734:	9c 21 ff 78 	l.addi r1,r1,-136
    1738:	d4 01 18 0c 	l.sw 12(r1),r3
    173c:	84 60 00 04 	l.lwz r3,4(r0)
    1740:	d4 01 18 04 	l.sw 4(r1),r3
    1744:	d4 01 20 10 	l.sw 16(r1),r4
    1748:	18 60 00 00 	l.movhi r3,0x0
    174c:	a8 63 96 14 	l.ori r3,r3,0x9614
    1750:	84 83 00 00 	l.lwz r4,0(r3)
    1754:	9c 84 00 01 	l.addi r4,r4,1
    1758:	d4 03 20 00 	l.sw 0(r3),r4
    175c:	b4 60 00 10 	l.mfspr r3,r0,0x10
    1760:	00 00 12 10 	l.j 5fa0 <_or1k_exception_handler>
    1764:	b4 80 00 20 	l.mfspr r4,r0,0x20
	...
    1800:	d4 00 08 04 	l.sw 4(r0),r1
    1804:	18 20 00 00 	l.movhi r1,0x0
    1808:	a8 21 96 14 	l.ori r1,r1,0x9614
    180c:	84 21 00 00 	l.lwz r1,0(r1)
    1810:	e4 01 00 00 	l.sfeq r1,r0
    1814:	0c 00 00 06 	l.bnf 182c <_or1k_reset+0x172c>
    1818:	15 00 00 00 	l.nop 0x0
    181c:	18 20 00 00 	l.movhi r1,0x0
    1820:	a8 21 96 18 	l.ori r1,r1,0x9618
    1824:	00 00 00 04 	l.j 1834 <_or1k_reset+0x1734>
    1828:	84 21 00 00 	l.lwz r1,0(r1)
    182c:	84 20 00 04 	l.lwz r1,4(r0)
    1830:	9c 21 ff 80 	l.addi r1,r1,-128
    1834:	9c 21 ff 78 	l.addi r1,r1,-136
    1838:	d4 01 18 0c 	l.sw 12(r1),r3
    183c:	84 60 00 04 	l.lwz r3,4(r0)
    1840:	d4 01 18 04 	l.sw 4(r1),r3
    1844:	d4 01 20 10 	l.sw 16(r1),r4
    1848:	18 60 00 00 	l.movhi r3,0x0
    184c:	a8 63 96 14 	l.ori r3,r3,0x9614
    1850:	84 83 00 00 	l.lwz r4,0(r3)
    1854:	9c 84 00 01 	l.addi r4,r4,1
    1858:	d4 03 20 00 	l.sw 0(r3),r4
    185c:	b4 60 00 10 	l.mfspr r3,r0,0x10
    1860:	00 00 11 d0 	l.j 5fa0 <_or1k_exception_handler>
    1864:	b4 80 00 20 	l.mfspr r4,r0,0x20
	...
    1900:	d4 00 08 04 	l.sw 4(r0),r1
    1904:	18 20 00 00 	l.movhi r1,0x0
    1908:	a8 21 96 14 	l.ori r1,r1,0x9614
    190c:	84 21 00 00 	l.lwz r1,0(r1)
    1910:	e4 01 00 00 	l.sfeq r1,r0
    1914:	0c 00 00 06 	l.bnf 192c <_or1k_reset+0x182c>
    1918:	15 00 00 00 	l.nop 0x0
    191c:	18 20 00 00 	l.movhi r1,0x0
    1920:	a8 21 96 18 	l.ori r1,r1,0x9618
    1924:	00 00 00 04 	l.j 1934 <_or1k_reset+0x1834>
    1928:	84 21 00 00 	l.lwz r1,0(r1)
    192c:	84 20 00 04 	l.lwz r1,4(r0)
    1930:	9c 21 ff 80 	l.addi r1,r1,-128
    1934:	9c 21 ff 78 	l.addi r1,r1,-136
    1938:	d4 01 18 0c 	l.sw 12(r1),r3
    193c:	84 60 00 04 	l.lwz r3,4(r0)
    1940:	d4 01 18 04 	l.sw 4(r1),r3
    1944:	d4 01 20 10 	l.sw 16(r1),r4
    1948:	18 60 00 00 	l.movhi r3,0x0
    194c:	a8 63 96 14 	l.ori r3,r3,0x9614
    1950:	84 83 00 00 	l.lwz r4,0(r3)
    1954:	9c 84 00 01 	l.addi r4,r4,1
    1958:	d4 03 20 00 	l.sw 0(r3),r4
    195c:	b4 60 00 10 	l.mfspr r3,r0,0x10
    1960:	00 00 11 90 	l.j 5fa0 <_or1k_exception_handler>
    1964:	b4 80 00 20 	l.mfspr r4,r0,0x20
	...
    1a00:	d4 00 08 04 	l.sw 4(r0),r1
    1a04:	18 20 00 00 	l.movhi r1,0x0
    1a08:	a8 21 96 14 	l.ori r1,r1,0x9614
    1a0c:	84 21 00 00 	l.lwz r1,0(r1)
    1a10:	e4 01 00 00 	l.sfeq r1,r0
    1a14:	0c 00 00 06 	l.bnf 1a2c <_or1k_reset+0x192c>
    1a18:	15 00 00 00 	l.nop 0x0
    1a1c:	18 20 00 00 	l.movhi r1,0x0
    1a20:	a8 21 96 18 	l.ori r1,r1,0x9618
    1a24:	00 00 00 04 	l.j 1a34 <_or1k_reset+0x1934>
    1a28:	84 21 00 00 	l.lwz r1,0(r1)
    1a2c:	84 20 00 04 	l.lwz r1,4(r0)
    1a30:	9c 21 ff 80 	l.addi r1,r1,-128
    1a34:	9c 21 ff 78 	l.addi r1,r1,-136
    1a38:	d4 01 18 0c 	l.sw 12(r1),r3
    1a3c:	84 60 00 04 	l.lwz r3,4(r0)
    1a40:	d4 01 18 04 	l.sw 4(r1),r3
    1a44:	d4 01 20 10 	l.sw 16(r1),r4
    1a48:	18 60 00 00 	l.movhi r3,0x0
    1a4c:	a8 63 96 14 	l.ori r3,r3,0x9614
    1a50:	84 83 00 00 	l.lwz r4,0(r3)
    1a54:	9c 84 00 01 	l.addi r4,r4,1
    1a58:	d4 03 20 00 	l.sw 0(r3),r4
    1a5c:	b4 60 00 10 	l.mfspr r3,r0,0x10
    1a60:	00 00 11 50 	l.j 5fa0 <_or1k_exception_handler>
    1a64:	b4 80 00 20 	l.mfspr r4,r0,0x20
	...
    1b00:	d4 00 08 04 	l.sw 4(r0),r1
    1b04:	18 20 00 00 	l.movhi r1,0x0
    1b08:	a8 21 96 14 	l.ori r1,r1,0x9614
    1b0c:	84 21 00 00 	l.lwz r1,0(r1)
    1b10:	e4 01 00 00 	l.sfeq r1,r0
    1b14:	0c 00 00 06 	l.bnf 1b2c <_or1k_reset+0x1a2c>
    1b18:	15 00 00 00 	l.nop 0x0
    1b1c:	18 20 00 00 	l.movhi r1,0x0
    1b20:	a8 21 96 18 	l.ori r1,r1,0x9618
    1b24:	00 00 00 04 	l.j 1b34 <_or1k_reset+0x1a34>
    1b28:	84 21 00 00 	l.lwz r1,0(r1)
    1b2c:	84 20 00 04 	l.lwz r1,4(r0)
    1b30:	9c 21 ff 80 	l.addi r1,r1,-128
    1b34:	9c 21 ff 78 	l.addi r1,r1,-136
    1b38:	d4 01 18 0c 	l.sw 12(r1),r3
    1b3c:	84 60 00 04 	l.lwz r3,4(r0)
    1b40:	d4 01 18 04 	l.sw 4(r1),r3
    1b44:	d4 01 20 10 	l.sw 16(r1),r4
    1b48:	18 60 00 00 	l.movhi r3,0x0
    1b4c:	a8 63 96 14 	l.ori r3,r3,0x9614
    1b50:	84 83 00 00 	l.lwz r4,0(r3)
    1b54:	9c 84 00 01 	l.addi r4,r4,1
    1b58:	d4 03 20 00 	l.sw 0(r3),r4
    1b5c:	b4 60 00 10 	l.mfspr r3,r0,0x10
    1b60:	00 00 11 10 	l.j 5fa0 <_or1k_exception_handler>
    1b64:	b4 80 00 20 	l.mfspr r4,r0,0x20
	...
    1c00:	d4 00 08 04 	l.sw 4(r0),r1
    1c04:	18 20 00 00 	l.movhi r1,0x0
    1c08:	a8 21 96 14 	l.ori r1,r1,0x9614
    1c0c:	84 21 00 00 	l.lwz r1,0(r1)
    1c10:	e4 01 00 00 	l.sfeq r1,r0
    1c14:	0c 00 00 06 	l.bnf 1c2c <_or1k_reset+0x1b2c>
    1c18:	15 00 00 00 	l.nop 0x0
    1c1c:	18 20 00 00 	l.movhi r1,0x0
    1c20:	a8 21 96 18 	l.ori r1,r1,0x9618
    1c24:	00 00 00 04 	l.j 1c34 <_or1k_reset+0x1b34>
    1c28:	84 21 00 00 	l.lwz r1,0(r1)
    1c2c:	84 20 00 04 	l.lwz r1,4(r0)
    1c30:	9c 21 ff 80 	l.addi r1,r1,-128
    1c34:	9c 21 ff 78 	l.addi r1,r1,-136
    1c38:	d4 01 18 0c 	l.sw 12(r1),r3
    1c3c:	84 60 00 04 	l.lwz r3,4(r0)
    1c40:	d4 01 18 04 	l.sw 4(r1),r3
    1c44:	d4 01 20 10 	l.sw 16(r1),r4
    1c48:	18 60 00 00 	l.movhi r3,0x0
    1c4c:	a8 63 96 14 	l.ori r3,r3,0x9614
    1c50:	84 83 00 00 	l.lwz r4,0(r3)
    1c54:	9c 84 00 01 	l.addi r4,r4,1
    1c58:	d4 03 20 00 	l.sw 0(r3),r4
    1c5c:	b4 60 00 10 	l.mfspr r3,r0,0x10
    1c60:	00 00 10 d0 	l.j 5fa0 <_or1k_exception_handler>
    1c64:	b4 80 00 20 	l.mfspr r4,r0,0x20
	...
    1d00:	d4 00 08 04 	l.sw 4(r0),r1
    1d04:	18 20 00 00 	l.movhi r1,0x0
    1d08:	a8 21 96 14 	l.ori r1,r1,0x9614
    1d0c:	84 21 00 00 	l.lwz r1,0(r1)
    1d10:	e4 01 00 00 	l.sfeq r1,r0
    1d14:	0c 00 00 06 	l.bnf 1d2c <_or1k_reset+0x1c2c>
    1d18:	15 00 00 00 	l.nop 0x0
    1d1c:	18 20 00 00 	l.movhi r1,0x0
    1d20:	a8 21 96 18 	l.ori r1,r1,0x9618
    1d24:	00 00 00 04 	l.j 1d34 <_or1k_reset+0x1c34>
    1d28:	84 21 00 00 	l.lwz r1,0(r1)
    1d2c:	84 20 00 04 	l.lwz r1,4(r0)
    1d30:	9c 21 ff 80 	l.addi r1,r1,-128
    1d34:	9c 21 ff 78 	l.addi r1,r1,-136
    1d38:	d4 01 18 0c 	l.sw 12(r1),r3
    1d3c:	84 60 00 04 	l.lwz r3,4(r0)
    1d40:	d4 01 18 04 	l.sw 4(r1),r3
    1d44:	d4 01 20 10 	l.sw 16(r1),r4
    1d48:	18 60 00 00 	l.movhi r3,0x0
    1d4c:	a8 63 96 14 	l.ori r3,r3,0x9614
    1d50:	84 83 00 00 	l.lwz r4,0(r3)
    1d54:	9c 84 00 01 	l.addi r4,r4,1
    1d58:	d4 03 20 00 	l.sw 0(r3),r4
    1d5c:	b4 60 00 10 	l.mfspr r3,r0,0x10
    1d60:	00 00 10 90 	l.j 5fa0 <_or1k_exception_handler>
    1d64:	b4 80 00 20 	l.mfspr r4,r0,0x20
	...
    1e00:	d4 00 08 04 	l.sw 4(r0),r1
    1e04:	18 20 00 00 	l.movhi r1,0x0
    1e08:	a8 21 96 14 	l.ori r1,r1,0x9614
    1e0c:	84 21 00 00 	l.lwz r1,0(r1)
    1e10:	e4 01 00 00 	l.sfeq r1,r0
    1e14:	0c 00 00 06 	l.bnf 1e2c <_or1k_reset+0x1d2c>
    1e18:	15 00 00 00 	l.nop 0x0
    1e1c:	18 20 00 00 	l.movhi r1,0x0
    1e20:	a8 21 96 18 	l.ori r1,r1,0x9618
    1e24:	00 00 00 04 	l.j 1e34 <_or1k_reset+0x1d34>
    1e28:	84 21 00 00 	l.lwz r1,0(r1)
    1e2c:	84 20 00 04 	l.lwz r1,4(r0)
    1e30:	9c 21 ff 80 	l.addi r1,r1,-128
    1e34:	9c 21 ff 78 	l.addi r1,r1,-136
    1e38:	d4 01 18 0c 	l.sw 12(r1),r3
    1e3c:	84 60 00 04 	l.lwz r3,4(r0)
    1e40:	d4 01 18 04 	l.sw 4(r1),r3
    1e44:	d4 01 20 10 	l.sw 16(r1),r4
    1e48:	18 60 00 00 	l.movhi r3,0x0
    1e4c:	a8 63 96 14 	l.ori r3,r3,0x9614
    1e50:	84 83 00 00 	l.lwz r4,0(r3)
    1e54:	9c 84 00 01 	l.addi r4,r4,1
    1e58:	d4 03 20 00 	l.sw 0(r3),r4
    1e5c:	b4 60 00 10 	l.mfspr r3,r0,0x10
    1e60:	00 00 10 50 	l.j 5fa0 <_or1k_exception_handler>
    1e64:	b4 80 00 20 	l.mfspr r4,r0,0x20
	...
    1f00:	d4 00 08 04 	l.sw 4(r0),r1
    1f04:	18 20 00 00 	l.movhi r1,0x0
    1f08:	a8 21 96 14 	l.ori r1,r1,0x9614
    1f0c:	84 21 00 00 	l.lwz r1,0(r1)
    1f10:	e4 01 00 00 	l.sfeq r1,r0
    1f14:	0c 00 00 06 	l.bnf 1f2c <_or1k_reset+0x1e2c>
    1f18:	15 00 00 00 	l.nop 0x0
    1f1c:	18 20 00 00 	l.movhi r1,0x0
    1f20:	a8 21 96 18 	l.ori r1,r1,0x9618
    1f24:	00 00 00 04 	l.j 1f34 <_or1k_reset+0x1e34>
    1f28:	84 21 00 00 	l.lwz r1,0(r1)
    1f2c:	84 20 00 04 	l.lwz r1,4(r0)
    1f30:	9c 21 ff 80 	l.addi r1,r1,-128
    1f34:	9c 21 ff 78 	l.addi r1,r1,-136
    1f38:	d4 01 18 0c 	l.sw 12(r1),r3
    1f3c:	84 60 00 04 	l.lwz r3,4(r0)
    1f40:	d4 01 18 04 	l.sw 4(r1),r3
    1f44:	d4 01 20 10 	l.sw 16(r1),r4
    1f48:	18 60 00 00 	l.movhi r3,0x0
    1f4c:	a8 63 96 14 	l.ori r3,r3,0x9614
    1f50:	84 83 00 00 	l.lwz r4,0(r3)
    1f54:	9c 84 00 01 	l.addi r4,r4,1
    1f58:	d4 03 20 00 	l.sw 0(r3),r4
    1f5c:	b4 60 00 10 	l.mfspr r3,r0,0x10
    1f60:	00 00 10 10 	l.j 5fa0 <_or1k_exception_handler>
    1f64:	b4 80 00 20 	l.mfspr r4,r0,0x20
	...
    1ffc:	15 00 00 00 	l.nop 0x0

Disassembly of section .text:

00002000 <_or1k_start-0x8>:
    2000:	44 00 48 00 	l.jr r9
    2004:	15 00 00 00 	l.nop 0x0

00002008 <_or1k_start>:
    2008:	04 00 0f 7e 	l.jal 5e00 <_or1k_cache_init>
    200c:	15 00 00 00 	l.nop 0x0
    2010:	04 00 00 9d 	l.jal 2284 <_or1k_board_init_early>
    2014:	15 00 00 00 	l.nop 0x0
    2018:	18 60 00 00 	l.movhi r3,0x0
    201c:	a8 63 94 9c 	l.ori r3,r3,0x949c
    2020:	18 80 00 00 	l.movhi r4,0x0
    2024:	a8 84 96 a0 	l.ori r4,r4,0x96a0
    2028:	d4 03 00 00 	l.sw 0(r3),r0
    202c:	e4 83 20 00 	l.sfltu r3,r4
    2030:	13 ff ff fe 	l.bf 2028 <_or1k_start+0x20>
    2034:	9c 63 00 04 	l.addi r3,r3,4
    2038:	18 20 00 00 	l.movhi r1,0x0
    203c:	a8 21 22 64 	l.ori r1,r1,0x2264
    2040:	84 21 00 00 	l.lwz r1,0(r1)
    2044:	18 40 00 00 	l.movhi r2,0x0
    2048:	a8 42 22 68 	l.ori r2,r2,0x2268
    204c:	84 42 00 00 	l.lwz r2,0(r2)
    2050:	e0 21 10 00 	l.add r1,r1,r2
    2054:	18 60 00 00 	l.movhi r3,0x0
    2058:	a8 63 96 18 	l.ori r3,r3,0x9618
    205c:	d4 03 08 00 	l.sw 0(r3),r1
    2060:	18 60 00 00 	l.movhi r3,0x0
    2064:	a8 63 88 30 	l.ori r3,r3,0x8830
    2068:	84 63 00 00 	l.lwz r3,0(r3)
    206c:	e0 81 18 02 	l.sub r4,r1,r3
    2070:	18 a0 00 00 	l.movhi r5,0x0
    2074:	a8 a5 96 20 	l.ori r5,r5,0x9620
    2078:	d4 05 20 00 	l.sw 0(r5),r4
    207c:	e0 20 20 04 	l.or r1,r0,r4
    2080:	e0 41 08 04 	l.or r2,r1,r1
    2084:	18 60 00 00 	l.movhi r3,0x0
    2088:	a8 63 96 1c 	l.ori r3,r3,0x961c
    208c:	d4 03 08 00 	l.sw 0(r3),r1
    2090:	18 60 00 00 	l.movhi r3,0x0
    2094:	a8 63 88 2c 	l.ori r3,r3,0x882c
    2098:	84 63 00 00 	l.lwz r3,0(r3)
    209c:	e0 81 18 02 	l.sub r4,r1,r3
    20a0:	18 a0 00 00 	l.movhi r5,0x0
    20a4:	a8 a5 96 24 	l.ori r5,r5,0x9624
    20a8:	d4 05 20 00 	l.sw 0(r5),r4
    20ac:	04 00 10 f0 	l.jal 646c <_or1k_init>
    20b0:	15 00 00 00 	l.nop 0x0
    20b4:	04 00 10 9f 	l.jal 6330 <_or1k_libc_impure_init>
    20b8:	15 00 00 00 	l.nop 0x0
    20bc:	04 00 00 b7 	l.jal 2398 <__libc_init_array>
    20c0:	15 00 00 00 	l.nop 0x0
    20c4:	18 60 00 00 	l.movhi r3,0x0
    20c8:	04 00 00 84 	l.jal 22d8 <atexit>
    20cc:	a8 63 23 30 	l.ori r3,r3,0x2330
    20d0:	18 80 00 00 	l.movhi r4,0x0
    20d4:	a8 84 22 70 	l.ori r4,r4,0x2270
    20d8:	84 84 00 00 	l.lwz r4,0(r4)
    20dc:	e4 24 00 00 	l.sfne r4,r0
    20e0:	0c 00 00 04 	l.bnf 20f0 <_or1k_start+0xe8>
    20e4:	e0 60 00 04 	l.or r3,r0,r0
    20e8:	04 00 0e f3 	l.jal 5cb4 <_or1k_uart_init>
    20ec:	15 00 00 00 	l.nop 0x0
    20f0:	04 00 00 67 	l.jal 228c <_or1k_board_init>
    20f4:	15 00 00 00 	l.nop 0x0
    20f8:	e0 60 00 04 	l.or r3,r0,r0
    20fc:	e0 80 00 04 	l.or r4,r0,r0
    2100:	04 00 00 65 	l.jal 2294 <main>
    2104:	e0 a0 00 04 	l.or r5,r0,r0
    2108:	04 00 00 79 	l.jal 22ec <exit>
    210c:	9c 6b 00 00 	l.addi r3,r11,0
    2110:	00 00 00 00 	l.j 2110 <_or1k_start+0x108>
    2114:	15 00 00 00 	l.nop 0x0

00002118 <deregister_tm_clones>:
    2118:	18 60 00 01 	l.movhi r3,0x1
    211c:	9c 63 94 9c 	l.addi r3,r3,-27492
    2120:	1a 20 00 01 	l.movhi r17,0x1
    2124:	9e 31 94 9c 	l.addi r17,r17,-27492
    2128:	e4 11 18 00 	l.sfeq r17,r3
    212c:	10 00 00 09 	l.bf 2150 <deregister_tm_clones+0x38>
    2130:	1a 20 00 00 	l.movhi r17,0x0
    2134:	1a 60 00 00 	l.movhi r19,0x0
    2138:	9e 31 00 00 	l.addi r17,r17,0
    213c:	e4 11 98 00 	l.sfeq r17,r19
    2140:	10 00 00 04 	l.bf 2150 <deregister_tm_clones+0x38>
    2144:	15 00 00 00 	l.nop 0x0
    2148:	44 00 88 00 	l.jr r17
    214c:	15 00 00 00 	l.nop 0x0
    2150:	44 00 48 00 	l.jr r9
    2154:	15 00 00 00 	l.nop 0x0

00002158 <register_tm_clones>:
    2158:	18 60 00 01 	l.movhi r3,0x1
    215c:	9c 63 94 9c 	l.addi r3,r3,-27492
    2160:	1a 20 00 01 	l.movhi r17,0x1
    2164:	9e 31 94 9c 	l.addi r17,r17,-27492
    2168:	aa 60 00 02 	l.ori r19,r0,0x2
    216c:	aa a0 00 1f 	l.ori r21,r0,0x1f
    2170:	e2 31 18 02 	l.sub r17,r17,r3
    2174:	e2 71 98 88 	l.sra r19,r17,r19
    2178:	e0 91 a8 48 	l.srl r4,r17,r21
    217c:	e0 84 98 00 	l.add r4,r4,r19
    2180:	aa 20 00 01 	l.ori r17,r0,0x1
    2184:	e0 84 88 88 	l.sra r4,r4,r17
    2188:	1a 60 00 00 	l.movhi r19,0x0
    218c:	e4 04 98 00 	l.sfeq r4,r19
    2190:	10 00 00 08 	l.bf 21b0 <register_tm_clones+0x58>
    2194:	1a 20 00 00 	l.movhi r17,0x0
    2198:	9e 31 00 00 	l.addi r17,r17,0
    219c:	e4 11 98 00 	l.sfeq r17,r19
    21a0:	10 00 00 04 	l.bf 21b0 <register_tm_clones+0x58>
    21a4:	15 00 00 00 	l.nop 0x0
    21a8:	44 00 88 00 	l.jr r17
    21ac:	15 00 00 00 	l.nop 0x0
    21b0:	44 00 48 00 	l.jr r9
    21b4:	15 00 00 00 	l.nop 0x0

000021b8 <__do_global_dtors_aux>:
    21b8:	9c 21 ff f4 	l.addi r1,r1,-12
    21bc:	d4 01 80 00 	l.sw 0(r1),r16
    21c0:	1a 00 00 01 	l.movhi r16,0x1
    21c4:	d4 01 90 04 	l.sw 4(r1),r18
    21c8:	8e 30 94 9c 	l.lbz r17,-27492(r16)
    21cc:	1a 40 00 00 	l.movhi r18,0x0
    21d0:	e4 31 90 00 	l.sfne r17,r18
    21d4:	10 00 00 0e 	l.bf 220c <__do_global_dtors_aux+0x54>
    21d8:	d4 01 48 08 	l.sw 8(r1),r9
    21dc:	07 ff ff cf 	l.jal 2118 <deregister_tm_clones>
    21e0:	15 00 00 00 	l.nop 0x0
    21e4:	1a 20 00 00 	l.movhi r17,0x0
    21e8:	9e 31 00 00 	l.addi r17,r17,0
    21ec:	e4 11 90 00 	l.sfeq r17,r18
    21f0:	10 00 00 06 	l.bf 2208 <__do_global_dtors_aux+0x50>
    21f4:	aa 20 00 01 	l.ori r17,r0,0x1
    21f8:	18 60 00 01 	l.movhi r3,0x1
    21fc:	07 ff f7 81 	l.jal 0 <_or1k_reset-0x100>
    2200:	9c 63 88 20 	l.addi r3,r3,-30688
    2204:	aa 20 00 01 	l.ori r17,r0,0x1
    2208:	da 50 8c 9c 	l.sb -27492(r16),r17
    220c:	86 01 00 00 	l.lwz r16,0(r1)
    2210:	86 41 00 04 	l.lwz r18,4(r1)
    2214:	85 21 00 08 	l.lwz r9,8(r1)
    2218:	44 00 48 00 	l.jr r9
    221c:	9c 21 00 0c 	l.addi r1,r1,12

00002220 <frame_dummy>:
    2220:	1a 20 00 00 	l.movhi r17,0x0
    2224:	9e 31 00 00 	l.addi r17,r17,0
    2228:	1a 60 00 00 	l.movhi r19,0x0
    222c:	e4 11 98 00 	l.sfeq r17,r19
    2230:	10 00 00 0b 	l.bf 225c <frame_dummy+0x3c>
    2234:	18 80 00 01 	l.movhi r4,0x1
    2238:	18 60 00 01 	l.movhi r3,0x1
    223c:	9c 21 ff fc 	l.addi r1,r1,-4
    2240:	9c 84 94 a0 	l.addi r4,r4,-27488
    2244:	d4 01 48 00 	l.sw 0(r1),r9
    2248:	07 ff f7 6e 	l.jal 0 <_or1k_reset-0x100>
    224c:	9c 63 88 20 	l.addi r3,r3,-30688
    2250:	85 21 00 00 	l.lwz r9,0(r1)
    2254:	03 ff ff c1 	l.j 2158 <register_tm_clones>
    2258:	9c 21 00 04 	l.addi r1,r1,4
    225c:	03 ff ff bf 	l.j 2158 <register_tm_clones>
    2260:	15 00 00 00 	l.nop 0x0

00002264 <_or1k_board_mem_base>:
    2264:	00 00 00 00 	l.j 2264 <_or1k_board_mem_base>

00002268 <_or1k_board_mem_size>:
    2268:	00 10 00 00 	l.j 402268 <_end+0x3f8bc8>

0000226c <_or1k_board_clk_freq>:
    226c:	02 fa f0 80 	l.j fbebe46c <_end+0xfbeb4dcc>

00002270 <_or1k_board_uart_base>:
    2270:	90 00 00 00 	l.lbs r0,0(r0)

00002274 <_or1k_board_uart_baud>:
    2274:	00 01 c2 00 	l.j 72a74 <_end+0x693d4>

00002278 <_or1k_board_uart_IRQ>:
    2278:	00 00 00 02 	l.j 2280 <_or1k_board_exit+0x4>

0000227c <_or1k_board_exit>:
    227c:	00 00 00 00 	l.j 227c <_or1k_board_exit>
    2280:	15 00 00 01 	l.nop 0x1

00002284 <_or1k_board_init_early>:
    2284:	44 00 48 00 	l.jr r9
    2288:	15 00 00 00 	l.nop 0x0

0000228c <_or1k_board_init>:
    228c:	44 00 48 00 	l.jr r9
    2290:	15 00 00 00 	l.nop 0x0

00002294 <main>:
    2294:	9c 21 ff f0 	l.addi r1,r1,-16
    2298:	d4 01 10 08 	l.sw 8(r1),r2
    229c:	9c 41 00 10 	l.addi r2,r1,16
    22a0:	d4 01 48 0c 	l.sw 12(r1),r9
    22a4:	d7 e2 1f f4 	l.sw -12(r2),r3
    22a8:	d7 e2 27 f0 	l.sw -16(r2),r4
    22ac:	1a 20 00 00 	l.movhi r17,0x0
    22b0:	9c 71 68 08 	l.addi r3,r17,26632
    22b4:	04 00 00 9d 	l.jal 2528 <puts>
    22b8:	15 00 00 00 	l.nop 0x0
    22bc:	1a 20 00 00 	l.movhi r17,0x0
    22c0:	e1 71 88 04 	l.or r11,r17,r17
    22c4:	84 41 00 08 	l.lwz r2,8(r1)
    22c8:	85 21 00 0c 	l.lwz r9,12(r1)
    22cc:	9c 21 00 10 	l.addi r1,r1,16
    22d0:	44 00 48 00 	l.jr r9
    22d4:	15 00 00 00 	l.nop 0x0

000022d8 <atexit>:
    22d8:	e0 83 18 04 	l.or r4,r3,r3
    22dc:	18 c0 00 00 	l.movhi r6,0x0
    22e0:	18 a0 00 00 	l.movhi r5,0x0
    22e4:	00 00 00 d5 	l.j 2638 <__register_exitproc>
    22e8:	18 60 00 00 	l.movhi r3,0x0

000022ec <exit>:
    22ec:	9c 21 ff f8 	l.addi r1,r1,-8
    22f0:	18 80 00 00 	l.movhi r4,0x0
    22f4:	d4 01 80 00 	l.sw 0(r1),r16
    22f8:	d4 01 48 04 	l.sw 4(r1),r9
    22fc:	04 00 01 05 	l.jal 2710 <__call_exitprocs>
    2300:	e2 03 18 04 	l.or r16,r3,r3
    2304:	1a 20 00 00 	l.movhi r17,0x0
    2308:	1a 60 00 00 	l.movhi r19,0x0
    230c:	84 71 68 18 	l.lwz r3,26648(r17)
    2310:	86 23 00 3c 	l.lwz r17,60(r3)
    2314:	e4 11 98 00 	l.sfeq r17,r19
    2318:	10 00 00 04 	l.bf 2328 <exit+0x3c>
    231c:	15 00 00 00 	l.nop 0x0
    2320:	48 00 88 00 	l.jalr r17
    2324:	15 00 00 00 	l.nop 0x0
    2328:	04 00 0e 10 	l.jal 5b68 <_exit>
    232c:	e0 70 80 04 	l.or r3,r16,r16

00002330 <__libc_fini_array>:
    2330:	9c 21 ff f4 	l.addi r1,r1,-12
    2334:	d4 01 80 00 	l.sw 0(r1),r16
    2338:	d4 01 90 04 	l.sw 4(r1),r18
    233c:	1a 00 00 01 	l.movhi r16,0x1
    2340:	1a 40 00 01 	l.movhi r18,0x1
    2344:	9e 52 88 2c 	l.addi r18,r18,-30676
    2348:	9e 10 88 28 	l.addi r16,r16,-30680
    234c:	aa 20 00 02 	l.ori r17,r0,0x2
    2350:	e2 12 80 02 	l.sub r16,r18,r16
    2354:	e2 10 88 88 	l.sra r16,r16,r17
    2358:	1a 20 00 00 	l.movhi r17,0x0
    235c:	e4 10 88 00 	l.sfeq r16,r17
    2360:	10 00 00 09 	l.bf 2384 <__libc_fini_array+0x54>
    2364:	d4 01 48 08 	l.sw 8(r1),r9
    2368:	86 32 ff fc 	l.lwz r17,-4(r18)
    236c:	48 00 88 00 	l.jalr r17
    2370:	9e 10 ff ff 	l.addi r16,r16,-1
    2374:	1a 20 00 00 	l.movhi r17,0x0
    2378:	e4 30 88 00 	l.sfne r16,r17
    237c:	13 ff ff fb 	l.bf 2368 <__libc_fini_array+0x38>
    2380:	9e 52 ff fc 	l.addi r18,r18,-4
    2384:	86 01 00 00 	l.lwz r16,0(r1)
    2388:	86 41 00 04 	l.lwz r18,4(r1)
    238c:	85 21 00 08 	l.lwz r9,8(r1)
    2390:	44 00 48 00 	l.jr r9
    2394:	9c 21 00 0c 	l.addi r1,r1,12

00002398 <__libc_init_array>:
    2398:	9c 21 ff f0 	l.addi r1,r1,-16
    239c:	d4 01 80 00 	l.sw 0(r1),r16
    23a0:	d4 01 a0 08 	l.sw 8(r1),r20
    23a4:	1a 00 00 01 	l.movhi r16,0x1
    23a8:	1a 80 00 01 	l.movhi r20,0x1
    23ac:	9e 10 88 24 	l.addi r16,r16,-30684
    23b0:	9e 94 88 24 	l.addi r20,r20,-30684
    23b4:	aa 20 00 02 	l.ori r17,r0,0x2
    23b8:	e2 94 80 02 	l.sub r20,r20,r16
    23bc:	e2 94 88 88 	l.sra r20,r20,r17
    23c0:	1a 20 00 00 	l.movhi r17,0x0
    23c4:	d4 01 90 04 	l.sw 4(r1),r18
    23c8:	e4 14 88 00 	l.sfeq r20,r17
    23cc:	10 00 00 09 	l.bf 23f0 <__libc_init_array+0x58>
    23d0:	d4 01 48 0c 	l.sw 12(r1),r9
    23d4:	1a 40 00 00 	l.movhi r18,0x0
    23d8:	86 30 00 00 	l.lwz r17,0(r16)
    23dc:	48 00 88 00 	l.jalr r17
    23e0:	9e 52 00 01 	l.addi r18,r18,1
    23e4:	e4 34 90 00 	l.sfne r20,r18
    23e8:	13 ff ff fc 	l.bf 23d8 <__libc_init_array+0x40>
    23ec:	9e 10 00 04 	l.addi r16,r16,4
    23f0:	1a 00 00 01 	l.movhi r16,0x1
    23f4:	1a 80 00 01 	l.movhi r20,0x1
    23f8:	9e 10 88 24 	l.addi r16,r16,-30684
    23fc:	9e 94 88 28 	l.addi r20,r20,-30680
    2400:	aa 20 00 02 	l.ori r17,r0,0x2
    2404:	e2 94 80 02 	l.sub r20,r20,r16
    2408:	e2 94 88 88 	l.sra r20,r20,r17
    240c:	1a 20 00 00 	l.movhi r17,0x0
    2410:	e4 14 88 00 	l.sfeq r20,r17
    2414:	10 00 00 08 	l.bf 2434 <__libc_init_array+0x9c>
    2418:	1a 40 00 00 	l.movhi r18,0x0
    241c:	86 30 00 00 	l.lwz r17,0(r16)
    2420:	48 00 88 00 	l.jalr r17
    2424:	9e 52 00 01 	l.addi r18,r18,1
    2428:	e4 34 90 00 	l.sfne r20,r18
    242c:	13 ff ff fc 	l.bf 241c <__libc_init_array+0x84>
    2430:	9e 10 00 04 	l.addi r16,r16,4
    2434:	86 01 00 00 	l.lwz r16,0(r1)
    2438:	86 41 00 04 	l.lwz r18,4(r1)
    243c:	86 81 00 08 	l.lwz r20,8(r1)
    2440:	85 21 00 0c 	l.lwz r9,12(r1)
    2444:	44 00 48 00 	l.jr r9
    2448:	9c 21 00 10 	l.addi r1,r1,16

0000244c <_puts_r>:
    244c:	9c 21 ff d4 	l.addi r1,r1,-44
    2450:	d4 01 80 20 	l.sw 32(r1),r16
    2454:	e2 03 18 04 	l.or r16,r3,r3
    2458:	e0 64 20 04 	l.or r3,r4,r4
    245c:	d4 01 90 24 	l.sw 36(r1),r18
    2460:	d4 01 48 28 	l.sw 40(r1),r9
    2464:	04 00 00 3c 	l.jal 2554 <strlen>
    2468:	e2 44 20 04 	l.or r18,r4,r4
    246c:	1a 20 00 00 	l.movhi r17,0x0
    2470:	9e 31 68 1c 	l.addi r17,r17,26652
    2474:	d4 01 88 18 	l.sw 24(r1),r17
    2478:	aa 20 00 01 	l.ori r17,r0,0x1
    247c:	9e 6b 00 01 	l.addi r19,r11,1
    2480:	d4 01 88 1c 	l.sw 28(r1),r17
    2484:	9e 21 00 10 	l.addi r17,r1,16
    2488:	d4 01 98 0c 	l.sw 12(r1),r19
    248c:	d4 01 88 04 	l.sw 4(r1),r17
    2490:	1a 60 00 00 	l.movhi r19,0x0
    2494:	aa 20 00 02 	l.ori r17,r0,0x2
    2498:	d4 01 88 08 	l.sw 8(r1),r17
    249c:	d4 01 90 10 	l.sw 16(r1),r18
    24a0:	86 30 00 38 	l.lwz r17,56(r16)
    24a4:	d4 01 58 14 	l.sw 20(r1),r11
    24a8:	e4 31 98 00 	l.sfne r17,r19
    24ac:	0c 00 00 1a 	l.bnf 2514 <_puts_r+0xc8>
    24b0:	84 90 00 08 	l.lwz r4,8(r16)
    24b4:	9a 24 00 0c 	l.lhs r17,12(r4)
    24b8:	a6 71 20 00 	l.andi r19,r17,0x2000
    24bc:	1a a0 00 00 	l.movhi r21,0x0
    24c0:	e4 33 a8 00 	l.sfne r19,r21
    24c4:	10 00 00 08 	l.bf 24e4 <_puts_r+0x98>
    24c8:	9c a1 00 04 	l.addi r5,r1,4
    24cc:	ae a0 df ff 	l.xori r21,r0,-8193
    24d0:	86 64 00 64 	l.lwz r19,100(r4)
    24d4:	aa 31 20 00 	l.ori r17,r17,0x2000
    24d8:	e2 73 a8 03 	l.and r19,r19,r21
    24dc:	dc 04 88 0c 	l.sh 12(r4),r17
    24e0:	d4 04 98 64 	l.sw 100(r4),r19
    24e4:	04 00 01 f0 	l.jal 2ca4 <__sfvwrite_r>
    24e8:	e0 70 80 04 	l.or r3,r16,r16
    24ec:	1a 20 00 00 	l.movhi r17,0x0
    24f0:	e4 2b 88 00 	l.sfne r11,r17
    24f4:	10 00 00 03 	l.bf 2500 <_puts_r+0xb4>
    24f8:	ad 60 ff ff 	l.xori r11,r0,-1
    24fc:	a9 60 00 0a 	l.ori r11,r0,0xa
    2500:	86 01 00 20 	l.lwz r16,32(r1)
    2504:	86 41 00 24 	l.lwz r18,36(r1)
    2508:	85 21 00 28 	l.lwz r9,40(r1)
    250c:	44 00 48 00 	l.jr r9
    2510:	9c 21 00 2c 	l.addi r1,r1,44
    2514:	e0 70 80 04 	l.or r3,r16,r16
    2518:	04 00 01 be 	l.jal 2c10 <__sinit>
    251c:	d4 01 20 00 	l.sw 0(r1),r4
    2520:	03 ff ff e5 	l.j 24b4 <_puts_r+0x68>
    2524:	84 81 00 00 	l.lwz r4,0(r1)

00002528 <puts>:
    2528:	9c 21 ff f8 	l.addi r1,r1,-8
    252c:	d4 01 80 00 	l.sw 0(r1),r16
    2530:	d4 01 48 04 	l.sw 4(r1),r9
    2534:	04 00 03 cf 	l.jal 3470 <__getreent>
    2538:	e2 03 18 04 	l.or r16,r3,r3
    253c:	e0 90 80 04 	l.or r4,r16,r16
    2540:	85 21 00 04 	l.lwz r9,4(r1)
    2544:	86 01 00 00 	l.lwz r16,0(r1)
    2548:	e0 6b 58 04 	l.or r3,r11,r11
    254c:	03 ff ff c0 	l.j 244c <_puts_r>
    2550:	9c 21 00 08 	l.addi r1,r1,8

00002554 <strlen>:
    2554:	a6 23 00 03 	l.andi r17,r3,0x3
    2558:	1a 60 00 00 	l.movhi r19,0x0
    255c:	e4 11 98 00 	l.sfeq r17,r19
    2560:	0c 00 00 08 	l.bnf 2580 <strlen+0x2c>
    2564:	e1 63 18 04 	l.or r11,r3,r3
    2568:	00 00 00 0e 	l.j 25a0 <strlen+0x4c>
    256c:	1a e0 fe fe 	l.movhi r23,0xfefe
    2570:	a6 2b 00 03 	l.andi r17,r11,0x3
    2574:	e4 31 98 00 	l.sfne r17,r19
    2578:	0c 00 00 0a 	l.bnf 25a0 <strlen+0x4c>
    257c:	1a e0 fe fe 	l.movhi r23,0xfefe
    2580:	92 2b 00 00 	l.lbs r17,0(r11)
    2584:	1a 60 00 00 	l.movhi r19,0x0
    2588:	e4 31 98 00 	l.sfne r17,r19
    258c:	13 ff ff f9 	l.bf 2570 <strlen+0x1c>
    2590:	9d 6b 00 01 	l.addi r11,r11,1
    2594:	9d 6b ff ff 	l.addi r11,r11,-1
    2598:	44 00 48 00 	l.jr r9
    259c:	e1 6b 18 02 	l.sub r11,r11,r3
    25a0:	aa f7 fe ff 	l.ori r23,r23,0xfeff
    25a4:	86 6b 00 00 	l.lwz r19,0(r11)
    25a8:	1a a0 80 80 	l.movhi r21,0x8080
    25ac:	e2 33 b8 00 	l.add r17,r19,r23
    25b0:	ae 73 ff ff 	l.xori r19,r19,-1
    25b4:	e2 31 98 03 	l.and r17,r17,r19
    25b8:	aa b5 80 80 	l.ori r21,r21,0x8080
    25bc:	e2 31 a8 03 	l.and r17,r17,r21
    25c0:	1a 60 00 00 	l.movhi r19,0x0
    25c4:	e4 31 98 00 	l.sfne r17,r19
    25c8:	10 00 00 0b 	l.bf 25f4 <strlen+0xa0>
    25cc:	15 00 00 00 	l.nop 0x0
    25d0:	86 6b 00 04 	l.lwz r19,4(r11)
    25d4:	e2 33 b8 00 	l.add r17,r19,r23
    25d8:	ae 73 ff ff 	l.xori r19,r19,-1
    25dc:	e2 31 98 03 	l.and r17,r17,r19
    25e0:	e2 31 a8 03 	l.and r17,r17,r21
    25e4:	1a 60 00 00 	l.movhi r19,0x0
    25e8:	e4 11 98 00 	l.sfeq r17,r19
    25ec:	13 ff ff f9 	l.bf 25d0 <strlen+0x7c>
    25f0:	9d 6b 00 04 	l.addi r11,r11,4
    25f4:	92 2b 00 00 	l.lbs r17,0(r11)
    25f8:	1a 60 00 00 	l.movhi r19,0x0
    25fc:	e4 11 98 00 	l.sfeq r17,r19
    2600:	13 ff ff e6 	l.bf 2598 <strlen+0x44>
    2604:	15 00 00 00 	l.nop 0x0
    2608:	92 2b 00 01 	l.lbs r17,1(r11)
    260c:	1a 60 00 00 	l.movhi r19,0x0
    2610:	e4 31 98 00 	l.sfne r17,r19
    2614:	0f ff ff e1 	l.bnf 2598 <strlen+0x44>
    2618:	9d 6b 00 01 	l.addi r11,r11,1
    261c:	92 2b 00 01 	l.lbs r17,1(r11)
    2620:	1a 60 00 00 	l.movhi r19,0x0
    2624:	e4 31 98 00 	l.sfne r17,r19
    2628:	13 ff ff f8 	l.bf 2608 <strlen+0xb4>
    262c:	9d 6b 00 01 	l.addi r11,r11,1
    2630:	03 ff ff da 	l.j 2598 <strlen+0x44>
    2634:	15 00 00 00 	l.nop 0x0

00002638 <__register_exitproc>:
    2638:	1a 20 00 00 	l.movhi r17,0x0
    263c:	1a a0 00 00 	l.movhi r21,0x0
    2640:	86 71 68 18 	l.lwz r19,26648(r17)
    2644:	86 33 01 48 	l.lwz r17,328(r19)
    2648:	e4 31 a8 00 	l.sfne r17,r21
    264c:	0c 00 00 20 	l.bnf 26cc <__register_exitproc+0x94>
    2650:	15 00 00 00 	l.nop 0x0
    2654:	aa a0 00 1f 	l.ori r21,r0,0x1f
    2658:	86 71 00 04 	l.lwz r19,4(r17)
    265c:	e5 53 a8 00 	l.sfgts r19,r21
    2660:	10 00 00 2a 	l.bf 2708 <__register_exitproc+0xd0>
    2664:	1a a0 00 00 	l.movhi r21,0x0
    2668:	e4 23 a8 00 	l.sfne r3,r21
    266c:	0c 00 00 0f 	l.bnf 26a8 <__register_exitproc+0x70>
    2670:	9e b3 00 02 	l.addi r21,r19,2
    2674:	ab 60 00 02 	l.ori r27,r0,0x2
    2678:	e2 b3 d8 08 	l.sll r21,r19,r27
    267c:	e2 b1 a8 00 	l.add r21,r17,r21
    2680:	aa e0 00 01 	l.ori r23,r0,0x1
    2684:	d4 15 28 88 	l.sw 136(r21),r5
    2688:	e2 f7 98 08 	l.sll r23,r23,r19
    268c:	87 31 01 88 	l.lwz r25,392(r17)
    2690:	e3 39 b8 04 	l.or r25,r25,r23
    2694:	d4 11 c9 88 	l.sw 392(r17),r25
    2698:	e4 23 d8 00 	l.sfne r3,r27
    269c:	0c 00 00 0f 	l.bnf 26d8 <__register_exitproc+0xa0>
    26a0:	d4 15 31 08 	l.sw 264(r21),r6
    26a4:	9e b3 00 02 	l.addi r21,r19,2
    26a8:	aa e0 00 02 	l.ori r23,r0,0x2
    26ac:	9e 73 00 01 	l.addi r19,r19,1
    26b0:	e2 b5 b8 08 	l.sll r21,r21,r23
    26b4:	d4 11 98 04 	l.sw 4(r17),r19
    26b8:	e2 31 a8 00 	l.add r17,r17,r21
    26bc:	d4 11 20 00 	l.sw 0(r17),r4
    26c0:	19 60 00 00 	l.movhi r11,0x0
    26c4:	44 00 48 00 	l.jr r9
    26c8:	15 00 00 00 	l.nop 0x0
    26cc:	9e 33 01 4c 	l.addi r17,r19,332
    26d0:	03 ff ff e1 	l.j 2654 <__register_exitproc+0x1c>
    26d4:	d4 13 89 48 	l.sw 328(r19),r17
    26d8:	86 b1 01 8c 	l.lwz r21,396(r17)
    26dc:	e2 f5 b8 04 	l.or r23,r21,r23
    26e0:	d4 11 b9 8c 	l.sw 396(r17),r23
    26e4:	9e b3 00 02 	l.addi r21,r19,2
    26e8:	aa e0 00 02 	l.ori r23,r0,0x2
    26ec:	9e 73 00 01 	l.addi r19,r19,1
    26f0:	e2 b5 b8 08 	l.sll r21,r21,r23
    26f4:	d4 11 98 04 	l.sw 4(r17),r19
    26f8:	e2 31 a8 00 	l.add r17,r17,r21
    26fc:	d4 11 20 00 	l.sw 0(r17),r4
    2700:	03 ff ff f1 	l.j 26c4 <__register_exitproc+0x8c>
    2704:	19 60 00 00 	l.movhi r11,0x0
    2708:	44 00 48 00 	l.jr r9
    270c:	ad 60 ff ff 	l.xori r11,r0,-1

00002710 <__call_exitprocs>:
    2710:	9c 21 ff d4 	l.addi r1,r1,-44
    2714:	d4 01 e0 1c 	l.sw 28(r1),r28
    2718:	1a 20 00 00 	l.movhi r17,0x0
    271c:	1b 80 00 00 	l.movhi r28,0x0
    2720:	d4 01 a0 0c 	l.sw 12(r1),r20
    2724:	d4 01 10 24 	l.sw 36(r1),r2
    2728:	d4 01 70 00 	l.sw 0(r1),r14
    272c:	84 5c 68 18 	l.lwz r2,26648(r28)
    2730:	d4 01 80 04 	l.sw 4(r1),r16
    2734:	86 82 01 48 	l.lwz r20,328(r2)
    2738:	d4 01 90 08 	l.sw 8(r1),r18
    273c:	d4 01 b0 10 	l.sw 16(r1),r22
    2740:	d4 01 c0 14 	l.sw 20(r1),r24
    2744:	d4 01 d0 18 	l.sw 24(r1),r26
    2748:	d4 01 f0 20 	l.sw 32(r1),r30
    274c:	e4 34 88 00 	l.sfne r20,r17
    2750:	0c 00 00 3b 	l.bnf 283c <__call_exitprocs+0x12c>
    2754:	d4 01 48 28 	l.sw 40(r1),r9
    2758:	e3 43 18 04 	l.or r26,r3,r3
    275c:	e3 c4 20 04 	l.or r30,r4,r4
    2760:	ab 00 00 01 	l.ori r24,r0,0x1
    2764:	ae c0 ff ff 	l.xori r22,r0,-1
    2768:	1a 20 00 00 	l.movhi r17,0x0
    276c:	86 14 00 04 	l.lwz r16,4(r20)
    2770:	9e 50 ff ff 	l.addi r18,r16,-1
    2774:	e5 92 88 00 	l.sflts r18,r17
    2778:	10 00 00 31 	l.bf 283c <__call_exitprocs+0x12c>
    277c:	9e 10 00 01 	l.addi r16,r16,1
    2780:	aa 20 00 02 	l.ori r17,r0,0x2
    2784:	e2 10 88 08 	l.sll r16,r16,r17
    2788:	00 00 00 06 	l.j 27a0 <__call_exitprocs+0x90>
    278c:	e2 14 80 00 	l.add r16,r20,r16
    2790:	9e 52 ff ff 	l.addi r18,r18,-1
    2794:	e4 32 b0 00 	l.sfne r18,r22
    2798:	0c 00 00 29 	l.bnf 283c <__call_exitprocs+0x12c>
    279c:	9e 10 ff fc 	l.addi r16,r16,-4
    27a0:	1a 20 00 00 	l.movhi r17,0x0
    27a4:	e4 1e 88 00 	l.sfeq r30,r17
    27a8:	10 00 00 06 	l.bf 27c0 <__call_exitprocs+0xb0>
    27ac:	15 00 00 00 	l.nop 0x0
    27b0:	86 30 01 00 	l.lwz r17,256(r16)
    27b4:	e4 11 f0 00 	l.sfeq r17,r30
    27b8:	0f ff ff f6 	l.bnf 2790 <__call_exitprocs+0x80>
    27bc:	15 00 00 00 	l.nop 0x0
    27c0:	86 34 00 04 	l.lwz r17,4(r20)
    27c4:	9e 31 ff ff 	l.addi r17,r17,-1
    27c8:	e4 31 90 00 	l.sfne r17,r18
    27cc:	0c 00 00 33 	l.bnf 2898 <__call_exitprocs+0x188>
    27d0:	86 b0 00 00 	l.lwz r21,0(r16)
    27d4:	d4 10 00 00 	l.sw 0(r16),r0
    27d8:	1a e0 00 00 	l.movhi r23,0x0
    27dc:	e4 15 b8 00 	l.sfeq r21,r23
    27e0:	13 ff ff ec 	l.bf 2790 <__call_exitprocs+0x80>
    27e4:	e2 78 90 08 	l.sll r19,r24,r18
    27e8:	86 34 01 88 	l.lwz r17,392(r20)
    27ec:	e2 33 88 03 	l.and r17,r19,r17
    27f0:	e4 31 b8 00 	l.sfne r17,r23
    27f4:	10 00 00 1f 	l.bf 2870 <__call_exitprocs+0x160>
    27f8:	85 d4 00 04 	l.lwz r14,4(r20)
    27fc:	48 00 a8 00 	l.jalr r21
    2800:	15 00 00 00 	l.nop 0x0
    2804:	86 34 00 04 	l.lwz r17,4(r20)
    2808:	e4 31 70 00 	l.sfne r17,r14
    280c:	10 00 00 07 	l.bf 2828 <__call_exitprocs+0x118>
    2810:	1a 20 00 00 	l.movhi r17,0x0
    2814:	86 22 01 48 	l.lwz r17,328(r2)
    2818:	e4 31 a0 00 	l.sfne r17,r20
    281c:	0f ff ff de 	l.bnf 2794 <__call_exitprocs+0x84>
    2820:	9e 52 ff ff 	l.addi r18,r18,-1
    2824:	1a 20 00 00 	l.movhi r17,0x0
    2828:	84 5c 68 18 	l.lwz r2,26648(r28)
    282c:	86 82 01 48 	l.lwz r20,328(r2)
    2830:	e4 14 88 00 	l.sfeq r20,r17
    2834:	0f ff ff ce 	l.bnf 276c <__call_exitprocs+0x5c>
    2838:	1a 20 00 00 	l.movhi r17,0x0
    283c:	85 c1 00 00 	l.lwz r14,0(r1)
    2840:	86 01 00 04 	l.lwz r16,4(r1)
    2844:	86 41 00 08 	l.lwz r18,8(r1)
    2848:	86 81 00 0c 	l.lwz r20,12(r1)
    284c:	86 c1 00 10 	l.lwz r22,16(r1)
    2850:	87 01 00 14 	l.lwz r24,20(r1)
    2854:	87 41 00 18 	l.lwz r26,24(r1)
    2858:	87 81 00 1c 	l.lwz r28,28(r1)
    285c:	87 c1 00 20 	l.lwz r30,32(r1)
    2860:	84 41 00 24 	l.lwz r2,36(r1)
    2864:	85 21 00 28 	l.lwz r9,40(r1)
    2868:	44 00 48 00 	l.jr r9
    286c:	9c 21 00 2c 	l.addi r1,r1,44
    2870:	86 34 01 8c 	l.lwz r17,396(r20)
    2874:	e2 73 88 03 	l.and r19,r19,r17
    2878:	1a 20 00 00 	l.movhi r17,0x0
    287c:	e4 33 88 00 	l.sfne r19,r17
    2880:	10 00 00 08 	l.bf 28a0 <__call_exitprocs+0x190>
    2884:	84 90 00 80 	l.lwz r4,128(r16)
    2888:	48 00 a8 00 	l.jalr r21
    288c:	e0 7a d0 04 	l.or r3,r26,r26
    2890:	03 ff ff de 	l.j 2808 <__call_exitprocs+0xf8>
    2894:	86 34 00 04 	l.lwz r17,4(r20)
    2898:	03 ff ff d0 	l.j 27d8 <__call_exitprocs+0xc8>
    289c:	d4 14 90 04 	l.sw 4(r20),r18
    28a0:	48 00 a8 00 	l.jalr r21
    28a4:	e0 64 20 04 	l.or r3,r4,r4
    28a8:	03 ff ff d8 	l.j 2808 <__call_exitprocs+0xf8>
    28ac:	86 34 00 04 	l.lwz r17,4(r20)

000028b0 <__fp_lock>:
    28b0:	44 00 48 00 	l.jr r9
    28b4:	19 60 00 00 	l.movhi r11,0x0

000028b8 <_cleanup_r>:
    28b8:	18 80 00 00 	l.movhi r4,0x0
    28bc:	00 00 02 b2 	l.j 3384 <_fwalk_reent>
    28c0:	9c 84 4e 0c 	l.addi r4,r4,19980

000028c4 <__sinit.part.0>:
    28c4:	9c 21 ff e4 	l.addi r1,r1,-28
    28c8:	1a 20 00 00 	l.movhi r17,0x0
    28cc:	d4 01 48 18 	l.sw 24(r1),r9
    28d0:	d4 01 80 00 	l.sw 0(r1),r16
    28d4:	d4 01 90 04 	l.sw 4(r1),r18
    28d8:	d4 01 a0 08 	l.sw 8(r1),r20
    28dc:	d4 01 b0 0c 	l.sw 12(r1),r22
    28e0:	d4 01 c0 10 	l.sw 16(r1),r24
    28e4:	d4 01 d0 14 	l.sw 20(r1),r26
    28e8:	9e 31 28 b8 	l.addi r17,r17,10424
    28ec:	d4 03 88 3c 	l.sw 60(r3),r17
    28f0:	9e 63 02 ec 	l.addi r19,r3,748
    28f4:	aa 20 00 03 	l.ori r17,r0,0x3
    28f8:	d4 03 9a e8 	l.sw 744(r3),r19
    28fc:	d4 03 8a e4 	l.sw 740(r3),r17
    2900:	d4 03 02 e0 	l.sw 736(r3),r0
    2904:	1a 20 00 04 	l.movhi r17,0x4
    2908:	86 03 00 04 	l.lwz r16,4(r3)
    290c:	e2 43 18 04 	l.or r18,r3,r3
    2910:	d4 10 88 0c 	l.sw 12(r16),r17
    2914:	9c 70 00 5c 	l.addi r3,r16,92
    2918:	a8 a0 00 08 	l.ori r5,r0,0x8
    291c:	18 80 00 00 	l.movhi r4,0x0
    2920:	d4 10 00 64 	l.sw 100(r16),r0
    2924:	d4 10 00 00 	l.sw 0(r16),r0
    2928:	d4 10 00 04 	l.sw 4(r16),r0
    292c:	d4 10 00 08 	l.sw 8(r16),r0
    2930:	d4 10 00 10 	l.sw 16(r16),r0
    2934:	d4 10 00 14 	l.sw 20(r16),r0
    2938:	04 00 06 36 	l.jal 4210 <memset>
    293c:	d4 10 00 18 	l.sw 24(r16),r0
    2940:	1b 40 00 00 	l.movhi r26,0x0
    2944:	1b 00 00 00 	l.movhi r24,0x0
    2948:	1a c0 00 00 	l.movhi r22,0x0
    294c:	1a 80 00 00 	l.movhi r20,0x0
    2950:	1a 20 00 09 	l.movhi r17,0x9
    2954:	9f 5a 4a a0 	l.addi r26,r26,19104
    2958:	9f 18 4b 0c 	l.addi r24,r24,19212
    295c:	9e d6 4b 98 	l.addi r22,r22,19352
    2960:	9e 94 4b f8 	l.addi r20,r20,19448
    2964:	aa 31 00 01 	l.ori r17,r17,0x1
    2968:	d4 10 d0 20 	l.sw 32(r16),r26
    296c:	d4 10 c0 24 	l.sw 36(r16),r24
    2970:	d4 10 b0 28 	l.sw 40(r16),r22
    2974:	d4 10 a0 2c 	l.sw 44(r16),r20
    2978:	d4 10 80 1c 	l.sw 28(r16),r16
    297c:	a8 a0 00 08 	l.ori r5,r0,0x8
    2980:	86 12 00 08 	l.lwz r16,8(r18)
    2984:	18 80 00 00 	l.movhi r4,0x0
    2988:	9c 70 00 5c 	l.addi r3,r16,92
    298c:	d4 10 88 0c 	l.sw 12(r16),r17
    2990:	d4 10 00 64 	l.sw 100(r16),r0
    2994:	d4 10 00 00 	l.sw 0(r16),r0
    2998:	d4 10 00 04 	l.sw 4(r16),r0
    299c:	d4 10 00 08 	l.sw 8(r16),r0
    29a0:	d4 10 00 10 	l.sw 16(r16),r0
    29a4:	d4 10 00 14 	l.sw 20(r16),r0
    29a8:	04 00 06 1a 	l.jal 4210 <memset>
    29ac:	d4 10 00 18 	l.sw 24(r16),r0
    29b0:	1a 20 00 12 	l.movhi r17,0x12
    29b4:	aa 31 00 02 	l.ori r17,r17,0x2
    29b8:	d4 10 d0 20 	l.sw 32(r16),r26
    29bc:	d4 10 c0 24 	l.sw 36(r16),r24
    29c0:	d4 10 b0 28 	l.sw 40(r16),r22
    29c4:	d4 10 a0 2c 	l.sw 44(r16),r20
    29c8:	d4 10 80 1c 	l.sw 28(r16),r16
    29cc:	a8 a0 00 08 	l.ori r5,r0,0x8
    29d0:	86 12 00 0c 	l.lwz r16,12(r18)
    29d4:	18 80 00 00 	l.movhi r4,0x0
    29d8:	d4 10 88 0c 	l.sw 12(r16),r17
    29dc:	d4 10 00 64 	l.sw 100(r16),r0
    29e0:	d4 10 00 00 	l.sw 0(r16),r0
    29e4:	d4 10 00 04 	l.sw 4(r16),r0
    29e8:	d4 10 00 08 	l.sw 8(r16),r0
    29ec:	d4 10 00 10 	l.sw 16(r16),r0
    29f0:	d4 10 00 14 	l.sw 20(r16),r0
    29f4:	d4 10 00 18 	l.sw 24(r16),r0
    29f8:	04 00 06 06 	l.jal 4210 <memset>
    29fc:	9c 70 00 5c 	l.addi r3,r16,92
    2a00:	aa 20 00 01 	l.ori r17,r0,0x1
    2a04:	d4 10 d0 20 	l.sw 32(r16),r26
    2a08:	d4 10 c0 24 	l.sw 36(r16),r24
    2a0c:	d4 10 b0 28 	l.sw 40(r16),r22
    2a10:	d4 10 a0 2c 	l.sw 44(r16),r20
    2a14:	d4 10 80 1c 	l.sw 28(r16),r16
    2a18:	d4 12 88 38 	l.sw 56(r18),r17
    2a1c:	86 01 00 00 	l.lwz r16,0(r1)
    2a20:	86 41 00 04 	l.lwz r18,4(r1)
    2a24:	86 81 00 08 	l.lwz r20,8(r1)
    2a28:	86 c1 00 0c 	l.lwz r22,12(r1)
    2a2c:	87 01 00 10 	l.lwz r24,16(r1)
    2a30:	87 41 00 14 	l.lwz r26,20(r1)
    2a34:	85 21 00 18 	l.lwz r9,24(r1)
    2a38:	44 00 48 00 	l.jr r9
    2a3c:	9c 21 00 1c 	l.addi r1,r1,28

00002a40 <__fp_unlock>:
    2a40:	44 00 48 00 	l.jr r9
    2a44:	19 60 00 00 	l.movhi r11,0x0

00002a48 <__sfmoreglue>:
    2a48:	9c 21 ff f0 	l.addi r1,r1,-16
    2a4c:	d4 01 90 04 	l.sw 4(r1),r18
    2a50:	9e 44 ff ff 	l.addi r18,r4,-1
    2a54:	b2 52 00 68 	l.muli r18,r18,104
    2a58:	d4 01 a0 08 	l.sw 8(r1),r20
    2a5c:	e2 84 20 04 	l.or r20,r4,r4
    2a60:	d4 01 80 00 	l.sw 0(r1),r16
    2a64:	d4 01 48 0c 	l.sw 12(r1),r9
    2a68:	04 00 02 84 	l.jal 3478 <_malloc_r>
    2a6c:	9c 92 00 74 	l.addi r4,r18,116
    2a70:	1a 20 00 00 	l.movhi r17,0x0
    2a74:	e4 0b 88 00 	l.sfeq r11,r17
    2a78:	10 00 00 09 	l.bf 2a9c <__sfmoreglue+0x54>
    2a7c:	e2 0b 58 04 	l.or r16,r11,r11
    2a80:	9c 6b 00 0c 	l.addi r3,r11,12
    2a84:	d4 0b 00 00 	l.sw 0(r11),r0
    2a88:	d4 0b a0 04 	l.sw 4(r11),r20
    2a8c:	d4 0b 18 08 	l.sw 8(r11),r3
    2a90:	9c b2 00 68 	l.addi r5,r18,104
    2a94:	04 00 05 df 	l.jal 4210 <memset>
    2a98:	18 80 00 00 	l.movhi r4,0x0
    2a9c:	e1 70 80 04 	l.or r11,r16,r16
    2aa0:	86 41 00 04 	l.lwz r18,4(r1)
    2aa4:	86 01 00 00 	l.lwz r16,0(r1)
    2aa8:	86 81 00 08 	l.lwz r20,8(r1)
    2aac:	85 21 00 0c 	l.lwz r9,12(r1)
    2ab0:	44 00 48 00 	l.jr r9
    2ab4:	9c 21 00 10 	l.addi r1,r1,16

00002ab8 <__sfp>:
    2ab8:	9c 21 ff e8 	l.addi r1,r1,-24
    2abc:	1a 20 00 00 	l.movhi r17,0x0
    2ac0:	1a 60 00 00 	l.movhi r19,0x0
    2ac4:	d4 01 a0 08 	l.sw 8(r1),r20
    2ac8:	d4 01 b0 0c 	l.sw 12(r1),r22
    2acc:	86 91 68 18 	l.lwz r20,26648(r17)
    2ad0:	d4 01 80 00 	l.sw 0(r1),r16
    2ad4:	86 34 00 38 	l.lwz r17,56(r20)
    2ad8:	d4 01 90 04 	l.sw 4(r1),r18
    2adc:	d4 01 c0 10 	l.sw 16(r1),r24
    2ae0:	d4 01 48 14 	l.sw 20(r1),r9
    2ae4:	e4 31 98 00 	l.sfne r17,r19
    2ae8:	0c 00 00 37 	l.bnf 2bc4 <__sfp+0x10c>
    2aec:	e2 c3 18 04 	l.or r22,r3,r3
    2af0:	9e 94 02 e0 	l.addi r20,r20,736
    2af4:	ae 40 ff ff 	l.xori r18,r0,-1
    2af8:	ab 00 00 04 	l.ori r24,r0,0x4
    2afc:	1a 60 00 00 	l.movhi r19,0x0
    2b00:	86 34 00 04 	l.lwz r17,4(r20)
    2b04:	9e 31 ff ff 	l.addi r17,r17,-1
    2b08:	e5 91 98 00 	l.sflts r17,r19
    2b0c:	0c 00 00 07 	l.bnf 2b28 <__sfp+0x70>
    2b10:	86 14 00 08 	l.lwz r16,8(r20)
    2b14:	00 00 00 26 	l.j 2bac <__sfp+0xf4>
    2b18:	1a 20 00 00 	l.movhi r17,0x0
    2b1c:	e4 31 90 00 	l.sfne r17,r18
    2b20:	0c 00 00 22 	l.bnf 2ba8 <__sfp+0xf0>
    2b24:	9e 10 00 68 	l.addi r16,r16,104
    2b28:	9a 70 00 0c 	l.lhs r19,12(r16)
    2b2c:	1a a0 00 00 	l.movhi r21,0x0
    2b30:	e4 33 a8 00 	l.sfne r19,r21
    2b34:	13 ff ff fa 	l.bf 2b1c <__sfp+0x64>
    2b38:	9e 31 ff ff 	l.addi r17,r17,-1
    2b3c:	1a 20 00 01 	l.movhi r17,0x1
    2b40:	aa 31 ff ff 	l.ori r17,r17,0xffff
    2b44:	d4 10 00 64 	l.sw 100(r16),r0
    2b48:	d4 10 00 00 	l.sw 0(r16),r0
    2b4c:	d4 10 00 04 	l.sw 4(r16),r0
    2b50:	d4 10 00 08 	l.sw 8(r16),r0
    2b54:	d4 10 88 0c 	l.sw 12(r16),r17
    2b58:	d4 10 00 10 	l.sw 16(r16),r0
    2b5c:	d4 10 00 14 	l.sw 20(r16),r0
    2b60:	d4 10 00 18 	l.sw 24(r16),r0
    2b64:	a8 a0 00 08 	l.ori r5,r0,0x8
    2b68:	18 80 00 00 	l.movhi r4,0x0
    2b6c:	04 00 05 a9 	l.jal 4210 <memset>
    2b70:	9c 70 00 5c 	l.addi r3,r16,92
    2b74:	d4 10 00 30 	l.sw 48(r16),r0
    2b78:	d4 10 00 34 	l.sw 52(r16),r0
    2b7c:	d4 10 00 44 	l.sw 68(r16),r0
    2b80:	d4 10 00 48 	l.sw 72(r16),r0
    2b84:	e1 70 80 04 	l.or r11,r16,r16
    2b88:	86 41 00 04 	l.lwz r18,4(r1)
    2b8c:	86 01 00 00 	l.lwz r16,0(r1)
    2b90:	86 81 00 08 	l.lwz r20,8(r1)
    2b94:	86 c1 00 0c 	l.lwz r22,12(r1)
    2b98:	87 01 00 10 	l.lwz r24,16(r1)
    2b9c:	85 21 00 14 	l.lwz r9,20(r1)
    2ba0:	44 00 48 00 	l.jr r9
    2ba4:	9c 21 00 18 	l.addi r1,r1,24
    2ba8:	1a 20 00 00 	l.movhi r17,0x0
    2bac:	85 74 00 00 	l.lwz r11,0(r20)
    2bb0:	e4 2b 88 00 	l.sfne r11,r17
    2bb4:	0c 00 00 08 	l.bnf 2bd4 <__sfp+0x11c>
    2bb8:	e0 98 c0 04 	l.or r4,r24,r24
    2bbc:	03 ff ff d0 	l.j 2afc <__sfp+0x44>
    2bc0:	e2 8b 58 04 	l.or r20,r11,r11
    2bc4:	07 ff ff 40 	l.jal 28c4 <__sinit.part.0>
    2bc8:	e0 74 a0 04 	l.or r3,r20,r20
    2bcc:	03 ff ff ca 	l.j 2af4 <__sfp+0x3c>
    2bd0:	9e 94 02 e0 	l.addi r20,r20,736
    2bd4:	07 ff ff 9d 	l.jal 2a48 <__sfmoreglue>
    2bd8:	e0 76 b0 04 	l.or r3,r22,r22
    2bdc:	1a 20 00 00 	l.movhi r17,0x0
    2be0:	e4 0b 88 00 	l.sfeq r11,r17
    2be4:	0f ff ff f6 	l.bnf 2bbc <__sfp+0x104>
    2be8:	d4 14 58 00 	l.sw 0(r20),r11
    2bec:	aa 20 00 0c 	l.ori r17,r0,0xc
    2bf0:	d4 16 88 00 	l.sw 0(r22),r17
    2bf4:	03 ff ff e4 	l.j 2b84 <__sfp+0xcc>
    2bf8:	1a 00 00 00 	l.movhi r16,0x0

00002bfc <_cleanup>:
    2bfc:	18 80 00 00 	l.movhi r4,0x0
    2c00:	1a 20 00 00 	l.movhi r17,0x0
    2c04:	9c 84 4e 0c 	l.addi r4,r4,19980
    2c08:	00 00 01 df 	l.j 3384 <_fwalk_reent>
    2c0c:	84 71 68 18 	l.lwz r3,26648(r17)

00002c10 <__sinit>:
    2c10:	1a 60 00 00 	l.movhi r19,0x0
    2c14:	86 23 00 38 	l.lwz r17,56(r3)
    2c18:	e4 31 98 00 	l.sfne r17,r19
    2c1c:	0c 00 00 04 	l.bnf 2c2c <__sinit+0x1c>
    2c20:	15 00 00 00 	l.nop 0x0
    2c24:	44 00 48 00 	l.jr r9
    2c28:	15 00 00 00 	l.nop 0x0
    2c2c:	03 ff ff 26 	l.j 28c4 <__sinit.part.0>
    2c30:	15 00 00 00 	l.nop 0x0

00002c34 <__sfp_lock_acquire>:
    2c34:	44 00 48 00 	l.jr r9
    2c38:	15 00 00 00 	l.nop 0x0

00002c3c <__sfp_lock_release>:
    2c3c:	44 00 48 00 	l.jr r9
    2c40:	15 00 00 00 	l.nop 0x0

00002c44 <__sinit_lock_acquire>:
    2c44:	44 00 48 00 	l.jr r9
    2c48:	15 00 00 00 	l.nop 0x0

00002c4c <__sinit_lock_release>:
    2c4c:	44 00 48 00 	l.jr r9
    2c50:	15 00 00 00 	l.nop 0x0

00002c54 <__fp_lock_all>:
    2c54:	9c 21 ff fc 	l.addi r1,r1,-4
    2c58:	d4 01 48 00 	l.sw 0(r1),r9
    2c5c:	04 00 02 05 	l.jal 3470 <__getreent>
    2c60:	15 00 00 00 	l.nop 0x0
    2c64:	18 80 00 00 	l.movhi r4,0x0
    2c68:	85 21 00 00 	l.lwz r9,0(r1)
    2c6c:	9c 84 28 b0 	l.addi r4,r4,10416
    2c70:	e0 6b 58 04 	l.or r3,r11,r11
    2c74:	00 00 01 8d 	l.j 32a8 <_fwalk>
    2c78:	9c 21 00 04 	l.addi r1,r1,4

00002c7c <__fp_unlock_all>:
    2c7c:	9c 21 ff fc 	l.addi r1,r1,-4
    2c80:	d4 01 48 00 	l.sw 0(r1),r9
    2c84:	04 00 01 fb 	l.jal 3470 <__getreent>
    2c88:	15 00 00 00 	l.nop 0x0
    2c8c:	18 80 00 00 	l.movhi r4,0x0
    2c90:	85 21 00 00 	l.lwz r9,0(r1)
    2c94:	9c 84 2a 40 	l.addi r4,r4,10816
    2c98:	e0 6b 58 04 	l.or r3,r11,r11
    2c9c:	00 00 01 83 	l.j 32a8 <_fwalk>
    2ca0:	9c 21 00 04 	l.addi r1,r1,4

00002ca4 <__sfvwrite_r>:
    2ca4:	1a 60 00 00 	l.movhi r19,0x0
    2ca8:	86 25 00 08 	l.lwz r17,8(r5)
    2cac:	e4 31 98 00 	l.sfne r17,r19
    2cb0:	0c 00 01 08 	l.bnf 30d0 <__sfvwrite_r+0x42c>
    2cb4:	1a a0 00 00 	l.movhi r21,0x0
    2cb8:	9c 21 ff d0 	l.addi r1,r1,-48
    2cbc:	96 24 00 0c 	l.lhz r17,12(r4)
    2cc0:	a6 71 00 08 	l.andi r19,r17,0x8
    2cc4:	d4 01 70 04 	l.sw 4(r1),r14
    2cc8:	d4 01 80 08 	l.sw 8(r1),r16
    2ccc:	d4 01 b0 14 	l.sw 20(r1),r22
    2cd0:	d4 01 90 0c 	l.sw 12(r1),r18
    2cd4:	d4 01 a0 10 	l.sw 16(r1),r20
    2cd8:	d4 01 c0 18 	l.sw 24(r1),r24
    2cdc:	d4 01 d0 1c 	l.sw 28(r1),r26
    2ce0:	d4 01 e0 20 	l.sw 32(r1),r28
    2ce4:	d4 01 f0 24 	l.sw 36(r1),r30
    2ce8:	d4 01 10 28 	l.sw 40(r1),r2
    2cec:	d4 01 48 2c 	l.sw 44(r1),r9
    2cf0:	e4 13 a8 00 	l.sfeq r19,r21
    2cf4:	e1 c5 28 04 	l.or r14,r5,r5
    2cf8:	e2 c3 18 04 	l.or r22,r3,r3
    2cfc:	10 00 00 30 	l.bf 2dbc <__sfvwrite_r+0x118>
    2d00:	e2 04 20 04 	l.or r16,r4,r4
    2d04:	86 64 00 10 	l.lwz r19,16(r4)
    2d08:	e4 33 a8 00 	l.sfne r19,r21
    2d0c:	0c 00 00 2c 	l.bnf 2dbc <__sfvwrite_r+0x118>
    2d10:	a6 71 00 02 	l.andi r19,r17,0x2
    2d14:	1a a0 00 00 	l.movhi r21,0x0
    2d18:	e4 13 a8 00 	l.sfeq r19,r21
    2d1c:	10 00 00 34 	l.bf 2dec <__sfvwrite_r+0x148>
    2d20:	86 8e 00 00 	l.lwz r20,0(r14)
    2d24:	1b 40 7f ff 	l.movhi r26,0x7fff
    2d28:	1b 00 00 00 	l.movhi r24,0x0
    2d2c:	1a 40 00 00 	l.movhi r18,0x0
    2d30:	ab 5a fc 00 	l.ori r26,r26,0xfc00
    2d34:	86 30 00 24 	l.lwz r17,36(r16)
    2d38:	84 90 00 1c 	l.lwz r4,28(r16)
    2d3c:	1a 60 00 00 	l.movhi r19,0x0
    2d40:	e4 12 98 00 	l.sfeq r18,r19
    2d44:	e0 b8 c0 04 	l.or r5,r24,r24
    2d48:	10 00 00 19 	l.bf 2dac <__sfvwrite_r+0x108>
    2d4c:	e0 76 b0 04 	l.or r3,r22,r22
    2d50:	e4 b2 d0 00 	l.sfleu r18,r26
    2d54:	10 00 00 03 	l.bf 2d60 <__sfvwrite_r+0xbc>
    2d58:	e0 d2 90 04 	l.or r6,r18,r18
    2d5c:	e0 da d0 04 	l.or r6,r26,r26
    2d60:	48 00 88 00 	l.jalr r17
    2d64:	15 00 00 00 	l.nop 0x0
    2d68:	1a 60 00 00 	l.movhi r19,0x0
    2d6c:	e5 ab 98 00 	l.sfles r11,r19
    2d70:	e3 18 58 00 	l.add r24,r24,r11
    2d74:	10 00 00 d2 	l.bf 30bc <__sfvwrite_r+0x418>
    2d78:	e2 52 58 02 	l.sub r18,r18,r11
    2d7c:	86 2e 00 08 	l.lwz r17,8(r14)
    2d80:	e1 71 58 02 	l.sub r11,r17,r11
    2d84:	e4 0b 98 00 	l.sfeq r11,r19
    2d88:	10 00 00 b3 	l.bf 3054 <__sfvwrite_r+0x3b0>
    2d8c:	d4 0e 58 08 	l.sw 8(r14),r11
    2d90:	1a 60 00 00 	l.movhi r19,0x0
    2d94:	e4 12 98 00 	l.sfeq r18,r19
    2d98:	e0 b8 c0 04 	l.or r5,r24,r24
    2d9c:	e0 76 b0 04 	l.or r3,r22,r22
    2da0:	86 30 00 24 	l.lwz r17,36(r16)
    2da4:	0f ff ff eb 	l.bnf 2d50 <__sfvwrite_r+0xac>
    2da8:	84 90 00 1c 	l.lwz r4,28(r16)
    2dac:	87 14 00 00 	l.lwz r24,0(r20)
    2db0:	86 54 00 04 	l.lwz r18,4(r20)
    2db4:	03 ff ff e2 	l.j 2d3c <__sfvwrite_r+0x98>
    2db8:	9e 94 00 08 	l.addi r20,r20,8
    2dbc:	e0 90 80 04 	l.or r4,r16,r16
    2dc0:	04 00 07 90 	l.jal 4c00 <__swsetup_r>
    2dc4:	e0 76 b0 04 	l.or r3,r22,r22
    2dc8:	1a 20 00 00 	l.movhi r17,0x0
    2dcc:	e4 2b 88 00 	l.sfne r11,r17
    2dd0:	10 00 01 34 	l.bf 32a0 <__sfvwrite_r+0x5fc>
    2dd4:	1a a0 00 00 	l.movhi r21,0x0
    2dd8:	96 30 00 0c 	l.lhz r17,12(r16)
    2ddc:	a6 71 00 02 	l.andi r19,r17,0x2
    2de0:	e4 13 a8 00 	l.sfeq r19,r21
    2de4:	0f ff ff d0 	l.bnf 2d24 <__sfvwrite_r+0x80>
    2de8:	86 8e 00 00 	l.lwz r20,0(r14)
    2dec:	a6 71 00 01 	l.andi r19,r17,0x1
    2df0:	1a a0 00 00 	l.movhi r21,0x0
    2df4:	e4 33 a8 00 	l.sfne r19,r21
    2df8:	10 00 00 b8 	l.bf 30d8 <__sfvwrite_r+0x434>
    2dfc:	1b c0 00 00 	l.movhi r30,0x0
    2e00:	1b 00 7f ff 	l.movhi r24,0x7fff
    2e04:	aa 78 ff ff 	l.ori r19,r24,0xffff
    2e08:	18 40 00 00 	l.movhi r2,0x0
    2e0c:	ab 58 ff fe 	l.ori r26,r24,0xfffe
    2e10:	d4 01 98 00 	l.sw 0(r1),r19
    2e14:	86 50 00 08 	l.lwz r18,8(r16)
    2e18:	84 70 00 00 	l.lwz r3,0(r16)
    2e1c:	1a a0 00 00 	l.movhi r21,0x0
    2e20:	e4 1e a8 00 	l.sfeq r30,r21
    2e24:	10 00 00 51 	l.bf 2f68 <__sfvwrite_r+0x2c4>
    2e28:	15 00 00 00 	l.nop 0x0
    2e2c:	a6 71 02 00 	l.andi r19,r17,0x200
    2e30:	e4 13 a8 00 	l.sfeq r19,r21
    2e34:	10 00 00 bd 	l.bf 3128 <__sfvwrite_r+0x484>
    2e38:	e4 52 f0 00 	l.sfgtu r18,r30
    2e3c:	10 00 00 ec 	l.bf 31ec <__sfvwrite_r+0x548>
    2e40:	e3 92 90 04 	l.or r28,r18,r18
    2e44:	a6 71 04 80 	l.andi r19,r17,0x480
    2e48:	e4 13 a8 00 	l.sfeq r19,r21
    2e4c:	10 00 00 2f 	l.bf 2f08 <__sfvwrite_r+0x264>
    2e50:	aa a0 00 1f 	l.ori r21,r0,0x1f
    2e54:	86 50 00 14 	l.lwz r18,20(r16)
    2e58:	e2 72 90 00 	l.add r19,r18,r18
    2e5c:	e2 73 90 00 	l.add r19,r19,r18
    2e60:	e2 53 a8 48 	l.srl r18,r19,r21
    2e64:	e2 52 98 00 	l.add r18,r18,r19
    2e68:	aa a0 00 01 	l.ori r21,r0,0x1
    2e6c:	9e 7e 00 01 	l.addi r19,r30,1
    2e70:	84 90 00 10 	l.lwz r4,16(r16)
    2e74:	e3 03 20 02 	l.sub r24,r3,r4
    2e78:	e2 52 a8 88 	l.sra r18,r18,r21
    2e7c:	e2 73 c0 00 	l.add r19,r19,r24
    2e80:	e4 b3 90 00 	l.sfleu r19,r18
    2e84:	10 00 00 04 	l.bf 2e94 <__sfvwrite_r+0x1f0>
    2e88:	e0 b2 90 04 	l.or r5,r18,r18
    2e8c:	e2 53 98 04 	l.or r18,r19,r19
    2e90:	e0 b3 98 04 	l.or r5,r19,r19
    2e94:	a6 31 04 00 	l.andi r17,r17,0x400
    2e98:	1a 60 00 00 	l.movhi r19,0x0
    2e9c:	e4 11 98 00 	l.sfeq r17,r19
    2ea0:	10 00 00 ea 	l.bf 3248 <__sfvwrite_r+0x5a4>
    2ea4:	15 00 00 00 	l.nop 0x0
    2ea8:	e0 85 28 04 	l.or r4,r5,r5
    2eac:	04 00 01 73 	l.jal 3478 <_malloc_r>
    2eb0:	e0 76 b0 04 	l.or r3,r22,r22
    2eb4:	1a 60 00 00 	l.movhi r19,0x0
    2eb8:	e4 2b 98 00 	l.sfne r11,r19
    2ebc:	0c 00 00 f5 	l.bnf 3290 <__sfvwrite_r+0x5ec>
    2ec0:	e3 8b 58 04 	l.or r28,r11,r11
    2ec4:	e0 b8 c0 04 	l.or r5,r24,r24
    2ec8:	e0 6b 58 04 	l.or r3,r11,r11
    2ecc:	04 00 04 25 	l.jal 3f60 <memcpy>
    2ed0:	84 90 00 10 	l.lwz r4,16(r16)
    2ed4:	96 70 00 0c 	l.lhz r19,12(r16)
    2ed8:	ae 20 fb 7f 	l.xori r17,r0,-1153
    2edc:	e2 73 88 03 	l.and r19,r19,r17
    2ee0:	aa 73 00 80 	l.ori r19,r19,0x80
    2ee4:	dc 10 98 0c 	l.sh 12(r16),r19
    2ee8:	e0 7c c0 00 	l.add r3,r28,r24
    2eec:	e2 72 c0 02 	l.sub r19,r18,r24
    2ef0:	d4 10 e0 10 	l.sw 16(r16),r28
    2ef4:	d4 10 90 14 	l.sw 20(r16),r18
    2ef8:	d4 10 18 00 	l.sw 0(r16),r3
    2efc:	e2 5e f0 04 	l.or r18,r30,r30
    2f00:	d4 10 98 08 	l.sw 8(r16),r19
    2f04:	e3 9e f0 04 	l.or r28,r30,r30
    2f08:	e0 bc e0 04 	l.or r5,r28,r28
    2f0c:	04 00 04 65 	l.jal 40a0 <memmove>
    2f10:	e0 82 10 04 	l.or r4,r2,r2
    2f14:	86 70 00 08 	l.lwz r19,8(r16)
    2f18:	86 30 00 00 	l.lwz r17,0(r16)
    2f1c:	e2 73 90 02 	l.sub r19,r19,r18
    2f20:	e2 31 e0 00 	l.add r17,r17,r28
    2f24:	e2 5e f0 04 	l.or r18,r30,r30
    2f28:	d4 10 98 08 	l.sw 8(r16),r19
    2f2c:	d4 10 88 00 	l.sw 0(r16),r17
    2f30:	1b c0 00 00 	l.movhi r30,0x0
    2f34:	86 2e 00 08 	l.lwz r17,8(r14)
    2f38:	1a 60 00 00 	l.movhi r19,0x0
    2f3c:	e2 31 90 02 	l.sub r17,r17,r18
    2f40:	d4 0e 88 08 	l.sw 8(r14),r17
    2f44:	e4 11 98 00 	l.sfeq r17,r19
    2f48:	10 00 00 43 	l.bf 3054 <__sfvwrite_r+0x3b0>
    2f4c:	e0 42 90 00 	l.add r2,r2,r18
    2f50:	1a a0 00 00 	l.movhi r21,0x0
    2f54:	e4 1e a8 00 	l.sfeq r30,r21
    2f58:	96 30 00 0c 	l.lhz r17,12(r16)
    2f5c:	86 50 00 08 	l.lwz r18,8(r16)
    2f60:	0f ff ff b3 	l.bnf 2e2c <__sfvwrite_r+0x188>
    2f64:	84 70 00 00 	l.lwz r3,0(r16)
    2f68:	84 54 00 00 	l.lwz r2,0(r20)
    2f6c:	87 d4 00 04 	l.lwz r30,4(r20)
    2f70:	03 ff ff ab 	l.j 2e1c <__sfvwrite_r+0x178>
    2f74:	9e 94 00 08 	l.addi r20,r20,8
    2f78:	1a 20 00 00 	l.movhi r17,0x0
    2f7c:	87 14 00 04 	l.lwz r24,4(r20)
    2f80:	e4 18 88 00 	l.sfeq r24,r17
    2f84:	87 94 00 00 	l.lwz r28,0(r20)
    2f88:	13 ff ff fc 	l.bf 2f78 <__sfvwrite_r+0x2d4>
    2f8c:	9e 94 00 08 	l.addi r20,r20,8
    2f90:	e0 b8 c0 04 	l.or r5,r24,r24
    2f94:	a8 80 00 0a 	l.ori r4,r0,0xa
    2f98:	04 00 03 a9 	l.jal 3e3c <memchr>
    2f9c:	e0 7c e0 04 	l.or r3,r28,r28
    2fa0:	1a 20 00 00 	l.movhi r17,0x0
    2fa4:	e4 0b 88 00 	l.sfeq r11,r17
    2fa8:	10 00 00 5e 	l.bf 3120 <__sfvwrite_r+0x47c>
    2fac:	9e 38 00 01 	l.addi r17,r24,1
    2fb0:	9d 6b 00 01 	l.addi r11,r11,1
    2fb4:	e3 cb e0 02 	l.sub r30,r11,r28
    2fb8:	e2 3e f0 04 	l.or r17,r30,r30
    2fbc:	e4 b8 88 00 	l.sfleu r24,r17
    2fc0:	10 00 00 03 	l.bf 2fcc <__sfvwrite_r+0x328>
    2fc4:	e0 58 c0 04 	l.or r2,r24,r24
    2fc8:	e0 51 88 04 	l.or r2,r17,r17
    2fcc:	84 70 00 00 	l.lwz r3,0(r16)
    2fd0:	86 30 00 10 	l.lwz r17,16(r16)
    2fd4:	e4 a3 88 00 	l.sfleu r3,r17
    2fd8:	10 00 00 07 	l.bf 2ff4 <__sfvwrite_r+0x350>
    2fdc:	84 d0 00 14 	l.lwz r6,20(r16)
    2fe0:	86 50 00 08 	l.lwz r18,8(r16)
    2fe4:	e2 46 90 00 	l.add r18,r6,r18
    2fe8:	e5 a2 90 00 	l.sfles r2,r18
    2fec:	0c 00 00 28 	l.bnf 308c <__sfvwrite_r+0x3e8>
    2ff0:	e0 b2 90 04 	l.or r5,r18,r18
    2ff4:	e5 46 10 00 	l.sfgts r6,r2
    2ff8:	10 00 00 89 	l.bf 321c <__sfvwrite_r+0x578>
    2ffc:	e0 bc e0 04 	l.or r5,r28,r28
    3000:	e0 76 b0 04 	l.or r3,r22,r22
    3004:	86 30 00 24 	l.lwz r17,36(r16)
    3008:	48 00 88 00 	l.jalr r17
    300c:	84 90 00 1c 	l.lwz r4,28(r16)
    3010:	1a 20 00 00 	l.movhi r17,0x0
    3014:	e5 4b 88 00 	l.sfgts r11,r17
    3018:	0c 00 00 29 	l.bnf 30bc <__sfvwrite_r+0x418>
    301c:	e2 4b 58 04 	l.or r18,r11,r11
    3020:	e3 de 90 02 	l.sub r30,r30,r18
    3024:	1a 20 00 00 	l.movhi r17,0x0
    3028:	e4 3e 88 00 	l.sfne r30,r17
    302c:	0c 00 00 73 	l.bnf 31f8 <__sfvwrite_r+0x554>
    3030:	e1 7a d0 04 	l.or r11,r26,r26
    3034:	86 2e 00 08 	l.lwz r17,8(r14)
    3038:	1a 60 00 00 	l.movhi r19,0x0
    303c:	e2 31 90 02 	l.sub r17,r17,r18
    3040:	d4 0e 88 08 	l.sw 8(r14),r17
    3044:	e4 31 98 00 	l.sfne r17,r19
    3048:	e3 9c 90 00 	l.add r28,r28,r18
    304c:	10 00 00 27 	l.bf 30e8 <__sfvwrite_r+0x444>
    3050:	e3 18 90 02 	l.sub r24,r24,r18
    3054:	19 60 00 00 	l.movhi r11,0x0
    3058:	85 c1 00 04 	l.lwz r14,4(r1)
    305c:	86 01 00 08 	l.lwz r16,8(r1)
    3060:	86 41 00 0c 	l.lwz r18,12(r1)
    3064:	86 81 00 10 	l.lwz r20,16(r1)
    3068:	86 c1 00 14 	l.lwz r22,20(r1)
    306c:	87 01 00 18 	l.lwz r24,24(r1)
    3070:	87 41 00 1c 	l.lwz r26,28(r1)
    3074:	87 81 00 20 	l.lwz r28,32(r1)
    3078:	87 c1 00 24 	l.lwz r30,36(r1)
    307c:	84 41 00 28 	l.lwz r2,40(r1)
    3080:	85 21 00 2c 	l.lwz r9,44(r1)
    3084:	44 00 48 00 	l.jr r9
    3088:	9c 21 00 30 	l.addi r1,r1,48
    308c:	04 00 04 05 	l.jal 40a0 <memmove>
    3090:	e0 9c e0 04 	l.or r4,r28,r28
    3094:	86 30 00 00 	l.lwz r17,0(r16)
    3098:	e2 31 90 00 	l.add r17,r17,r18
    309c:	d4 10 88 00 	l.sw 0(r16),r17
    30a0:	e0 90 80 04 	l.or r4,r16,r16
    30a4:	04 00 08 82 	l.jal 52ac <_fflush_r>
    30a8:	e0 76 b0 04 	l.or r3,r22,r22
    30ac:	1a 20 00 00 	l.movhi r17,0x0
    30b0:	e4 0b 88 00 	l.sfeq r11,r17
    30b4:	13 ff ff dd 	l.bf 3028 <__sfvwrite_r+0x384>
    30b8:	e3 de 90 02 	l.sub r30,r30,r18
    30bc:	9a 30 00 0c 	l.lhs r17,12(r16)
    30c0:	aa 31 00 40 	l.ori r17,r17,0x40
    30c4:	dc 10 88 0c 	l.sh 12(r16),r17
    30c8:	03 ff ff e4 	l.j 3058 <__sfvwrite_r+0x3b4>
    30cc:	ad 60 ff ff 	l.xori r11,r0,-1
    30d0:	44 00 48 00 	l.jr r9
    30d4:	19 60 00 00 	l.movhi r11,0x0
    30d8:	19 60 00 00 	l.movhi r11,0x0
    30dc:	1b 80 00 00 	l.movhi r28,0x0
    30e0:	1b 00 00 00 	l.movhi r24,0x0
    30e4:	ab 40 00 01 	l.ori r26,r0,0x1
    30e8:	1a 20 00 00 	l.movhi r17,0x0
    30ec:	e4 18 88 00 	l.sfeq r24,r17
    30f0:	13 ff ff a3 	l.bf 2f7c <__sfvwrite_r+0x2d8>
    30f4:	e4 0b 88 00 	l.sfeq r11,r17
    30f8:	0f ff ff b1 	l.bnf 2fbc <__sfvwrite_r+0x318>
    30fc:	e2 3e f0 04 	l.or r17,r30,r30
    3100:	e0 b8 c0 04 	l.or r5,r24,r24
    3104:	a8 80 00 0a 	l.ori r4,r0,0xa
    3108:	04 00 03 4d 	l.jal 3e3c <memchr>
    310c:	e0 7c e0 04 	l.or r3,r28,r28
    3110:	1a 20 00 00 	l.movhi r17,0x0
    3114:	e4 0b 88 00 	l.sfeq r11,r17
    3118:	0f ff ff a6 	l.bnf 2fb0 <__sfvwrite_r+0x30c>
    311c:	9e 38 00 01 	l.addi r17,r24,1
    3120:	03 ff ff a7 	l.j 2fbc <__sfvwrite_r+0x318>
    3124:	e3 d1 88 04 	l.or r30,r17,r17
    3128:	86 30 00 10 	l.lwz r17,16(r16)
    312c:	e4 91 18 00 	l.sfltu r17,r3
    3130:	10 00 00 17 	l.bf 318c <__sfvwrite_r+0x4e8>
    3134:	e4 b2 f0 00 	l.sfleu r18,r30
    3138:	86 30 00 14 	l.lwz r17,20(r16)
    313c:	e4 b1 f0 00 	l.sfleu r17,r30
    3140:	0c 00 00 13 	l.bnf 318c <__sfvwrite_r+0x4e8>
    3144:	e4 b2 f0 00 	l.sfleu r18,r30
    3148:	e4 be d0 00 	l.sfleu r30,r26
    314c:	10 00 00 03 	l.bf 3158 <__sfvwrite_r+0x4b4>
    3150:	e0 de f0 04 	l.or r6,r30,r30
    3154:	84 c1 00 00 	l.lwz r6,0(r1)
    3158:	e0 c6 8b 09 	l.div r6,r6,r17
    315c:	e0 c6 8b 06 	l.mul r6,r6,r17
    3160:	e0 a2 10 04 	l.or r5,r2,r2
    3164:	e0 76 b0 04 	l.or r3,r22,r22
    3168:	86 30 00 24 	l.lwz r17,36(r16)
    316c:	48 00 88 00 	l.jalr r17
    3170:	84 90 00 1c 	l.lwz r4,28(r16)
    3174:	1a 20 00 00 	l.movhi r17,0x0
    3178:	e5 4b 88 00 	l.sfgts r11,r17
    317c:	0f ff ff d0 	l.bnf 30bc <__sfvwrite_r+0x418>
    3180:	e2 4b 58 04 	l.or r18,r11,r11
    3184:	03 ff ff 6c 	l.j 2f34 <__sfvwrite_r+0x290>
    3188:	e3 de 90 02 	l.sub r30,r30,r18
    318c:	10 00 00 04 	l.bf 319c <__sfvwrite_r+0x4f8>
    3190:	e0 b2 90 04 	l.or r5,r18,r18
    3194:	e2 5e f0 04 	l.or r18,r30,r30
    3198:	e0 b2 90 04 	l.or r5,r18,r18
    319c:	04 00 03 c1 	l.jal 40a0 <memmove>
    31a0:	e0 82 10 04 	l.or r4,r2,r2
    31a4:	86 70 00 00 	l.lwz r19,0(r16)
    31a8:	e2 73 90 00 	l.add r19,r19,r18
    31ac:	86 30 00 08 	l.lwz r17,8(r16)
    31b0:	d4 10 98 00 	l.sw 0(r16),r19
    31b4:	e2 31 90 02 	l.sub r17,r17,r18
    31b8:	1a 60 00 00 	l.movhi r19,0x0
    31bc:	e4 11 98 00 	l.sfeq r17,r19
    31c0:	0f ff ff f1 	l.bnf 3184 <__sfvwrite_r+0x4e0>
    31c4:	d4 10 88 08 	l.sw 8(r16),r17
    31c8:	e0 90 80 04 	l.or r4,r16,r16
    31cc:	04 00 08 38 	l.jal 52ac <_fflush_r>
    31d0:	e0 76 b0 04 	l.or r3,r22,r22
    31d4:	1a 20 00 00 	l.movhi r17,0x0
    31d8:	e4 2b 88 00 	l.sfne r11,r17
    31dc:	13 ff ff b8 	l.bf 30bc <__sfvwrite_r+0x418>
    31e0:	e3 de 90 02 	l.sub r30,r30,r18
    31e4:	03 ff ff 55 	l.j 2f38 <__sfvwrite_r+0x294>
    31e8:	86 2e 00 08 	l.lwz r17,8(r14)
    31ec:	e2 5e f0 04 	l.or r18,r30,r30
    31f0:	03 ff ff 46 	l.j 2f08 <__sfvwrite_r+0x264>
    31f4:	e3 9e f0 04 	l.or r28,r30,r30
    31f8:	e0 90 80 04 	l.or r4,r16,r16
    31fc:	04 00 08 2c 	l.jal 52ac <_fflush_r>
    3200:	e0 76 b0 04 	l.or r3,r22,r22
    3204:	1a 20 00 00 	l.movhi r17,0x0
    3208:	e4 0b 88 00 	l.sfeq r11,r17
    320c:	13 ff ff 8a 	l.bf 3034 <__sfvwrite_r+0x390>
    3210:	15 00 00 00 	l.nop 0x0
    3214:	03 ff ff ab 	l.j 30c0 <__sfvwrite_r+0x41c>
    3218:	9a 30 00 0c 	l.lhs r17,12(r16)
    321c:	e0 a2 10 04 	l.or r5,r2,r2
    3220:	04 00 03 a0 	l.jal 40a0 <memmove>
    3224:	e0 9c e0 04 	l.or r4,r28,r28
    3228:	86 b0 00 08 	l.lwz r21,8(r16)
    322c:	86 30 00 00 	l.lwz r17,0(r16)
    3230:	e2 b5 10 02 	l.sub r21,r21,r2
    3234:	e2 31 10 00 	l.add r17,r17,r2
    3238:	d4 10 a8 08 	l.sw 8(r16),r21
    323c:	d4 10 88 00 	l.sw 0(r16),r17
    3240:	03 ff ff 78 	l.j 3020 <__sfvwrite_r+0x37c>
    3244:	e2 42 10 04 	l.or r18,r2,r2
    3248:	04 00 04 7c 	l.jal 4438 <_realloc_r>
    324c:	e0 76 b0 04 	l.or r3,r22,r22
    3250:	1a 20 00 00 	l.movhi r17,0x0
    3254:	e4 2b 88 00 	l.sfne r11,r17
    3258:	13 ff ff 24 	l.bf 2ee8 <__sfvwrite_r+0x244>
    325c:	e3 8b 58 04 	l.or r28,r11,r11
    3260:	e0 76 b0 04 	l.or r3,r22,r22
    3264:	04 00 08 97 	l.jal 54c0 <_free_r>
    3268:	84 90 00 10 	l.lwz r4,16(r16)
    326c:	96 30 00 0c 	l.lhz r17,12(r16)
    3270:	ae 60 ff 7f 	l.xori r19,r0,-129
    3274:	e2 31 98 03 	l.and r17,r17,r19
    3278:	aa 60 00 10 	l.ori r19,r0,0x10
    327c:	e2 31 98 08 	l.sll r17,r17,r19
    3280:	e2 31 98 88 	l.sra r17,r17,r19
    3284:	aa 60 00 0c 	l.ori r19,r0,0xc
    3288:	03 ff ff 8e 	l.j 30c0 <__sfvwrite_r+0x41c>
    328c:	d4 16 98 00 	l.sw 0(r22),r19
    3290:	aa 20 00 0c 	l.ori r17,r0,0xc
    3294:	d4 16 88 00 	l.sw 0(r22),r17
    3298:	03 ff ff 8a 	l.j 30c0 <__sfvwrite_r+0x41c>
    329c:	9a 30 00 0c 	l.lhs r17,12(r16)
    32a0:	03 ff ff 6e 	l.j 3058 <__sfvwrite_r+0x3b4>
    32a4:	ad 60 ff ff 	l.xori r11,r0,-1

000032a8 <_fwalk>:
    32a8:	9c 21 ff e0 	l.addi r1,r1,-32
    32ac:	d4 01 d0 14 	l.sw 20(r1),r26
    32b0:	1a 20 00 00 	l.movhi r17,0x0
    32b4:	9f 43 02 e0 	l.addi r26,r3,736
    32b8:	d4 01 80 00 	l.sw 0(r1),r16
    32bc:	d4 01 90 04 	l.sw 4(r1),r18
    32c0:	d4 01 a0 08 	l.sw 8(r1),r20
    32c4:	d4 01 b0 0c 	l.sw 12(r1),r22
    32c8:	d4 01 c0 10 	l.sw 16(r1),r24
    32cc:	d4 01 e0 18 	l.sw 24(r1),r28
    32d0:	e4 1a 88 00 	l.sfeq r26,r17
    32d4:	10 00 00 2a 	l.bf 337c <_fwalk+0xd4>
    32d8:	d4 01 48 1c 	l.sw 28(r1),r9
    32dc:	e3 84 20 04 	l.or r28,r4,r4
    32e0:	1b 00 00 00 	l.movhi r24,0x0
    32e4:	aa c0 00 01 	l.ori r22,r0,0x1
    32e8:	ae 80 ff ff 	l.xori r20,r0,-1
    32ec:	1a 20 00 00 	l.movhi r17,0x0
    32f0:	86 5a 00 04 	l.lwz r18,4(r26)
    32f4:	9e 52 ff ff 	l.addi r18,r18,-1
    32f8:	e5 92 88 00 	l.sflts r18,r17
    32fc:	10 00 00 10 	l.bf 333c <_fwalk+0x94>
    3300:	86 1a 00 08 	l.lwz r16,8(r26)
    3304:	96 30 00 0c 	l.lhz r17,12(r16)
    3308:	e4 b1 b0 00 	l.sfleu r17,r22
    330c:	10 00 00 09 	l.bf 3330 <_fwalk+0x88>
    3310:	9e 52 ff ff 	l.addi r18,r18,-1
    3314:	9a 30 00 0e 	l.lhs r17,14(r16)
    3318:	e4 11 a0 00 	l.sfeq r17,r20
    331c:	10 00 00 05 	l.bf 3330 <_fwalk+0x88>
    3320:	e0 70 80 04 	l.or r3,r16,r16
    3324:	48 00 e0 00 	l.jalr r28
    3328:	15 00 00 00 	l.nop 0x0
    332c:	e3 18 58 04 	l.or r24,r24,r11
    3330:	e4 32 a0 00 	l.sfne r18,r20
    3334:	13 ff ff f4 	l.bf 3304 <_fwalk+0x5c>
    3338:	9e 10 00 68 	l.addi r16,r16,104
    333c:	1a 20 00 00 	l.movhi r17,0x0
    3340:	87 5a 00 00 	l.lwz r26,0(r26)
    3344:	e4 3a 88 00 	l.sfne r26,r17
    3348:	13 ff ff ea 	l.bf 32f0 <_fwalk+0x48>
    334c:	15 00 00 00 	l.nop 0x0
    3350:	e1 78 c0 04 	l.or r11,r24,r24
    3354:	86 01 00 00 	l.lwz r16,0(r1)
    3358:	86 41 00 04 	l.lwz r18,4(r1)
    335c:	86 81 00 08 	l.lwz r20,8(r1)
    3360:	86 c1 00 0c 	l.lwz r22,12(r1)
    3364:	87 01 00 10 	l.lwz r24,16(r1)
    3368:	87 41 00 14 	l.lwz r26,20(r1)
    336c:	87 81 00 18 	l.lwz r28,24(r1)
    3370:	85 21 00 1c 	l.lwz r9,28(r1)
    3374:	44 00 48 00 	l.jr r9
    3378:	9c 21 00 20 	l.addi r1,r1,32
    337c:	03 ff ff f5 	l.j 3350 <_fwalk+0xa8>
    3380:	1b 00 00 00 	l.movhi r24,0x0

00003384 <_fwalk_reent>:
    3384:	9c 21 ff dc 	l.addi r1,r1,-36
    3388:	d4 01 d0 14 	l.sw 20(r1),r26
    338c:	1a 20 00 00 	l.movhi r17,0x0
    3390:	9f 43 02 e0 	l.addi r26,r3,736
    3394:	d4 01 80 00 	l.sw 0(r1),r16
    3398:	d4 01 90 04 	l.sw 4(r1),r18
    339c:	d4 01 a0 08 	l.sw 8(r1),r20
    33a0:	d4 01 b0 0c 	l.sw 12(r1),r22
    33a4:	d4 01 c0 10 	l.sw 16(r1),r24
    33a8:	d4 01 e0 18 	l.sw 24(r1),r28
    33ac:	d4 01 f0 1c 	l.sw 28(r1),r30
    33b0:	e4 1a 88 00 	l.sfeq r26,r17
    33b4:	10 00 00 2d 	l.bf 3468 <_fwalk_reent+0xe4>
    33b8:	d4 01 48 20 	l.sw 32(r1),r9
    33bc:	e3 03 18 04 	l.or r24,r3,r3
    33c0:	e3 84 20 04 	l.or r28,r4,r4
    33c4:	1b c0 00 00 	l.movhi r30,0x0
    33c8:	aa c0 00 01 	l.ori r22,r0,0x1
    33cc:	ae 80 ff ff 	l.xori r20,r0,-1
    33d0:	1a 20 00 00 	l.movhi r17,0x0
    33d4:	86 5a 00 04 	l.lwz r18,4(r26)
    33d8:	9e 52 ff ff 	l.addi r18,r18,-1
    33dc:	e5 92 88 00 	l.sflts r18,r17
    33e0:	10 00 00 11 	l.bf 3424 <_fwalk_reent+0xa0>
    33e4:	86 1a 00 08 	l.lwz r16,8(r26)
    33e8:	96 30 00 0c 	l.lhz r17,12(r16)
    33ec:	e4 b1 b0 00 	l.sfleu r17,r22
    33f0:	10 00 00 0a 	l.bf 3418 <_fwalk_reent+0x94>
    33f4:	9e 52 ff ff 	l.addi r18,r18,-1
    33f8:	9a 30 00 0e 	l.lhs r17,14(r16)
    33fc:	e4 11 a0 00 	l.sfeq r17,r20
    3400:	e0 90 80 04 	l.or r4,r16,r16
    3404:	10 00 00 05 	l.bf 3418 <_fwalk_reent+0x94>
    3408:	e0 78 c0 04 	l.or r3,r24,r24
    340c:	48 00 e0 00 	l.jalr r28
    3410:	15 00 00 00 	l.nop 0x0
    3414:	e3 de 58 04 	l.or r30,r30,r11
    3418:	e4 32 a0 00 	l.sfne r18,r20
    341c:	13 ff ff f3 	l.bf 33e8 <_fwalk_reent+0x64>
    3420:	9e 10 00 68 	l.addi r16,r16,104
    3424:	1a 20 00 00 	l.movhi r17,0x0
    3428:	87 5a 00 00 	l.lwz r26,0(r26)
    342c:	e4 3a 88 00 	l.sfne r26,r17
    3430:	13 ff ff e9 	l.bf 33d4 <_fwalk_reent+0x50>
    3434:	15 00 00 00 	l.nop 0x0
    3438:	e1 7e f0 04 	l.or r11,r30,r30
    343c:	86 01 00 00 	l.lwz r16,0(r1)
    3440:	86 41 00 04 	l.lwz r18,4(r1)
    3444:	86 81 00 08 	l.lwz r20,8(r1)
    3448:	86 c1 00 0c 	l.lwz r22,12(r1)
    344c:	87 01 00 10 	l.lwz r24,16(r1)
    3450:	87 41 00 14 	l.lwz r26,20(r1)
    3454:	87 81 00 18 	l.lwz r28,24(r1)
    3458:	87 c1 00 1c 	l.lwz r30,28(r1)
    345c:	85 21 00 20 	l.lwz r9,32(r1)
    3460:	44 00 48 00 	l.jr r9
    3464:	9c 21 00 24 	l.addi r1,r1,36
    3468:	03 ff ff f4 	l.j 3438 <_fwalk_reent+0xb4>
    346c:	1b c0 00 00 	l.movhi r30,0x0

00003470 <__getreent>:
    3470:	00 00 0b fa 	l.j 6458 <_or1k_libc_getreent>
    3474:	15 00 00 00 	l.nop 0x0

00003478 <_malloc_r>:
    3478:	9c 21 ff d4 	l.addi r1,r1,-44
    347c:	d4 01 90 08 	l.sw 8(r1),r18
    3480:	aa 20 00 16 	l.ori r17,r0,0x16
    3484:	9e 44 00 0b 	l.addi r18,r4,11
    3488:	d4 01 b0 10 	l.sw 16(r1),r22
    348c:	d4 01 70 00 	l.sw 0(r1),r14
    3490:	d4 01 80 04 	l.sw 4(r1),r16
    3494:	d4 01 a0 0c 	l.sw 12(r1),r20
    3498:	d4 01 c0 14 	l.sw 20(r1),r24
    349c:	d4 01 d0 18 	l.sw 24(r1),r26
    34a0:	d4 01 e0 1c 	l.sw 28(r1),r28
    34a4:	d4 01 f0 20 	l.sw 32(r1),r30
    34a8:	d4 01 10 24 	l.sw 36(r1),r2
    34ac:	d4 01 48 28 	l.sw 40(r1),r9
    34b0:	e4 52 88 00 	l.sfgtu r18,r17
    34b4:	10 00 00 21 	l.bf 3538 <_malloc_r+0xc0>
    34b8:	e2 c3 18 04 	l.or r22,r3,r3
    34bc:	aa 40 00 10 	l.ori r18,r0,0x10
    34c0:	e4 44 90 00 	l.sfgtu r4,r18
    34c4:	10 00 00 c0 	l.bf 37c4 <_malloc_r+0x34c>
    34c8:	aa 20 00 0c 	l.ori r17,r0,0xc
    34cc:	04 00 03 a1 	l.jal 4350 <__malloc_lock>
    34d0:	15 00 00 00 	l.nop 0x0
    34d4:	ab 20 00 02 	l.ori r25,r0,0x2
    34d8:	aa 20 00 18 	l.ori r17,r0,0x18
    34dc:	1a 80 00 01 	l.movhi r20,0x1
    34e0:	9e 94 8c 60 	l.addi r20,r20,-29600
    34e4:	e2 34 88 00 	l.add r17,r20,r17
    34e8:	9e 71 ff f8 	l.addi r19,r17,-8
    34ec:	86 11 00 04 	l.lwz r16,4(r17)
    34f0:	e4 30 98 00 	l.sfne r16,r19
    34f4:	0c 00 00 c6 	l.bnf 380c <_malloc_r+0x394>
    34f8:	15 00 00 00 	l.nop 0x0
    34fc:	ae 60 ff fc 	l.xori r19,r0,-4
    3500:	86 30 00 04 	l.lwz r17,4(r16)
    3504:	e2 31 98 03 	l.and r17,r17,r19
    3508:	86 b0 00 0c 	l.lwz r21,12(r16)
    350c:	86 f0 00 08 	l.lwz r23,8(r16)
    3510:	e2 30 88 00 	l.add r17,r16,r17
    3514:	d4 17 a8 0c 	l.sw 12(r23),r21
    3518:	86 71 00 04 	l.lwz r19,4(r17)
    351c:	d4 15 b8 08 	l.sw 8(r21),r23
    3520:	aa 73 00 01 	l.ori r19,r19,0x1
    3524:	d4 11 98 04 	l.sw 4(r17),r19
    3528:	04 00 03 b3 	l.jal 43f4 <__malloc_unlock>
    352c:	e0 76 b0 04 	l.or r3,r22,r22
    3530:	00 00 00 a7 	l.j 37cc <_malloc_r+0x354>
    3534:	9d 70 00 08 	l.addi r11,r16,8
    3538:	ae 20 ff f8 	l.xori r17,r0,-8
    353c:	e2 52 88 03 	l.and r18,r18,r17
    3540:	1a 20 00 00 	l.movhi r17,0x0
    3544:	e5 92 88 00 	l.sflts r18,r17
    3548:	10 00 00 9e 	l.bf 37c0 <_malloc_r+0x348>
    354c:	e4 a4 90 00 	l.sfleu r4,r18
    3550:	0c 00 00 9d 	l.bnf 37c4 <_malloc_r+0x34c>
    3554:	aa 20 00 0c 	l.ori r17,r0,0xc
    3558:	04 00 03 7e 	l.jal 4350 <__malloc_lock>
    355c:	15 00 00 00 	l.nop 0x0
    3560:	aa 20 01 f7 	l.ori r17,r0,0x1f7
    3564:	e4 52 88 00 	l.sfgtu r18,r17
    3568:	0c 00 01 6f 	l.bnf 3b24 <_malloc_r+0x6ac>
    356c:	1a 60 00 00 	l.movhi r19,0x0
    3570:	aa 20 00 09 	l.ori r17,r0,0x9
    3574:	e2 32 88 48 	l.srl r17,r18,r17
    3578:	e4 11 98 00 	l.sfeq r17,r19
    357c:	10 00 00 a1 	l.bf 3800 <_malloc_r+0x388>
    3580:	ab 20 00 40 	l.ori r25,r0,0x40
    3584:	aa 60 00 04 	l.ori r19,r0,0x4
    3588:	e4 51 98 00 	l.sfgtu r17,r19
    358c:	10 00 01 45 	l.bf 3aa0 <_malloc_r+0x628>
    3590:	aa 60 00 14 	l.ori r19,r0,0x14
    3594:	aa 20 00 06 	l.ori r17,r0,0x6
    3598:	e2 32 88 48 	l.srl r17,r18,r17
    359c:	9f 31 00 39 	l.addi r25,r17,57
    35a0:	9f b1 00 38 	l.addi r29,r17,56
    35a4:	aa 20 00 03 	l.ori r17,r0,0x3
    35a8:	e2 39 88 08 	l.sll r17,r25,r17
    35ac:	1a 80 00 01 	l.movhi r20,0x1
    35b0:	9e 94 8c 60 	l.addi r20,r20,-29600
    35b4:	e2 34 88 00 	l.add r17,r20,r17
    35b8:	9e b1 ff f8 	l.addi r21,r17,-8
    35bc:	86 11 00 04 	l.lwz r16,4(r17)
    35c0:	e4 15 80 00 	l.sfeq r21,r16
    35c4:	10 00 00 14 	l.bf 3614 <_malloc_r+0x19c>
    35c8:	9d b4 00 08 	l.addi r13,r20,8
    35cc:	af 60 ff fc 	l.xori r27,r0,-4
    35d0:	00 00 00 09 	l.j 35f4 <_malloc_r+0x17c>
    35d4:	aa e0 00 0f 	l.ori r23,r0,0xf
    35d8:	e5 93 f8 00 	l.sflts r19,r31
    35dc:	0f ff ff cb 	l.bnf 3508 <_malloc_r+0x90>
    35e0:	15 00 00 00 	l.nop 0x0
    35e4:	86 10 00 0c 	l.lwz r16,12(r16)
    35e8:	e4 35 80 00 	l.sfne r21,r16
    35ec:	0c 00 00 0a 	l.bnf 3614 <_malloc_r+0x19c>
    35f0:	9d b4 00 08 	l.addi r13,r20,8
    35f4:	86 30 00 04 	l.lwz r17,4(r16)
    35f8:	e2 31 d8 03 	l.and r17,r17,r27
    35fc:	e2 71 90 02 	l.sub r19,r17,r18
    3600:	e5 53 b8 00 	l.sfgts r19,r23
    3604:	0f ff ff f5 	l.bnf 35d8 <_malloc_r+0x160>
    3608:	1b e0 00 00 	l.movhi r31,0x0
    360c:	e3 3d e8 04 	l.or r25,r29,r29
    3610:	9d b4 00 08 	l.addi r13,r20,8
    3614:	86 14 00 10 	l.lwz r16,16(r20)
    3618:	e4 30 68 00 	l.sfne r16,r13
    361c:	0c 00 00 86 	l.bnf 3834 <_malloc_r+0x3bc>
    3620:	aa 20 00 02 	l.ori r17,r0,0x2
    3624:	ae 20 ff fc 	l.xori r17,r0,-4
    3628:	87 70 00 04 	l.lwz r27,4(r16)
    362c:	e3 7b 88 03 	l.and r27,r27,r17
    3630:	e2 3b 90 02 	l.sub r17,r27,r18
    3634:	aa 60 00 0f 	l.ori r19,r0,0xf
    3638:	e5 b1 98 00 	l.sfles r17,r19
    363c:	0c 00 01 46 	l.bnf 3b54 <_malloc_r+0x6dc>
    3640:	1a 60 00 00 	l.movhi r19,0x0
    3644:	d4 14 68 14 	l.sw 20(r20),r13
    3648:	e5 91 98 00 	l.sflts r17,r19
    364c:	0c 00 01 3a 	l.bnf 3b34 <_malloc_r+0x6bc>
    3650:	d4 14 68 10 	l.sw 16(r20),r13
    3654:	aa 20 01 ff 	l.ori r17,r0,0x1ff
    3658:	e4 5b 88 00 	l.sfgtu r27,r17
    365c:	10 00 00 ee 	l.bf 3a14 <_malloc_r+0x59c>
    3660:	aa 20 00 09 	l.ori r17,r0,0x9
    3664:	aa 60 00 03 	l.ori r19,r0,0x3
    3668:	e2 3b 98 48 	l.srl r17,r27,r19
    366c:	aa a0 00 05 	l.ori r21,r0,0x5
    3670:	9e 31 00 01 	l.addi r17,r17,1
    3674:	e3 7b a8 48 	l.srl r27,r27,r21
    3678:	e2 31 98 08 	l.sll r17,r17,r19
    367c:	aa 60 00 01 	l.ori r19,r0,0x1
    3680:	e2 34 88 00 	l.add r17,r20,r17
    3684:	e2 73 d8 08 	l.sll r19,r19,r27
    3688:	86 b4 00 04 	l.lwz r21,4(r20)
    368c:	9e f1 ff f8 	l.addi r23,r17,-8
    3690:	e2 73 a8 04 	l.or r19,r19,r21
    3694:	86 b1 00 00 	l.lwz r21,0(r17)
    3698:	d4 10 b8 0c 	l.sw 12(r16),r23
    369c:	d4 10 a8 08 	l.sw 8(r16),r21
    36a0:	d4 14 98 04 	l.sw 4(r20),r19
    36a4:	d4 11 80 00 	l.sw 0(r17),r16
    36a8:	d4 15 80 0c 	l.sw 12(r21),r16
    36ac:	aa 20 00 02 	l.ori r17,r0,0x2
    36b0:	e2 39 88 88 	l.sra r17,r25,r17
    36b4:	aa e0 00 01 	l.ori r23,r0,0x1
    36b8:	e2 f7 88 08 	l.sll r23,r23,r17
    36bc:	e4 57 98 00 	l.sfgtu r23,r19
    36c0:	10 00 00 65 	l.bf 3854 <_malloc_r+0x3dc>
    36c4:	ae 20 ff fc 	l.xori r17,r0,-4
    36c8:	e2 37 98 03 	l.and r17,r23,r19
    36cc:	1a a0 00 00 	l.movhi r21,0x0
    36d0:	e4 31 a8 00 	l.sfne r17,r21
    36d4:	10 00 00 10 	l.bf 3714 <_malloc_r+0x29c>
    36d8:	af e0 ff fc 	l.xori r31,r0,-4
    36dc:	ae 20 ff fc 	l.xori r17,r0,-4
    36e0:	e2 f7 b8 00 	l.add r23,r23,r23
    36e4:	e3 39 88 03 	l.and r25,r25,r17
    36e8:	e2 37 98 03 	l.and r17,r23,r19
    36ec:	e4 31 a8 00 	l.sfne r17,r21
    36f0:	10 00 00 09 	l.bf 3714 <_malloc_r+0x29c>
    36f4:	9f 39 00 04 	l.addi r25,r25,4
    36f8:	e2 f7 b8 00 	l.add r23,r23,r23
    36fc:	e2 37 98 03 	l.and r17,r23,r19
    3700:	1a a0 00 00 	l.movhi r21,0x0
    3704:	e4 11 a8 00 	l.sfeq r17,r21
    3708:	13 ff ff fc 	l.bf 36f8 <_malloc_r+0x280>
    370c:	9f 39 00 04 	l.addi r25,r25,4
    3710:	af e0 ff fc 	l.xori r31,r0,-4
    3714:	ab a0 00 0f 	l.ori r29,r0,0xf
    3718:	aa 20 00 03 	l.ori r17,r0,0x3
    371c:	e1 f9 88 08 	l.sll r15,r25,r17
    3720:	e1 f4 78 00 	l.add r15,r20,r15
    3724:	e3 6f 78 04 	l.or r27,r15,r15
    3728:	e1 99 c8 04 	l.or r12,r25,r25
    372c:	86 3b 00 0c 	l.lwz r17,12(r27)
    3730:	e4 1b 88 00 	l.sfeq r27,r17
    3734:	0c 00 00 0a 	l.bnf 375c <_malloc_r+0x2e4>
    3738:	15 00 00 00 	l.nop 0x0
    373c:	00 00 00 e8 	l.j 3adc <_malloc_r+0x664>
    3740:	9d 8c 00 01 	l.addi r12,r12,1
    3744:	19 60 00 00 	l.movhi r11,0x0
    3748:	e5 95 58 00 	l.sflts r21,r11
    374c:	0c 00 00 eb 	l.bnf 3af8 <_malloc_r+0x680>
    3750:	e4 3b 88 00 	l.sfne r27,r17
    3754:	0c 00 00 e1 	l.bnf 3ad8 <_malloc_r+0x660>
    3758:	15 00 00 00 	l.nop 0x0
    375c:	86 71 00 04 	l.lwz r19,4(r17)
    3760:	e2 73 f8 03 	l.and r19,r19,r31
    3764:	e2 b3 90 02 	l.sub r21,r19,r18
    3768:	e5 b5 e8 00 	l.sfles r21,r29
    376c:	e2 11 88 04 	l.or r16,r17,r17
    3770:	13 ff ff f5 	l.bf 3744 <_malloc_r+0x2cc>
    3774:	86 31 00 0c 	l.lwz r17,12(r17)
    3778:	aa f2 00 01 	l.ori r23,r18,0x1
    377c:	d4 10 b8 04 	l.sw 4(r16),r23
    3780:	86 f0 00 08 	l.lwz r23,8(r16)
    3784:	d4 17 88 0c 	l.sw 12(r23),r17
    3788:	d4 11 b8 08 	l.sw 8(r17),r23
    378c:	e2 50 90 00 	l.add r18,r16,r18
    3790:	d4 14 90 14 	l.sw 20(r20),r18
    3794:	d4 14 90 10 	l.sw 16(r20),r18
    3798:	aa 35 00 01 	l.ori r17,r21,0x1
    379c:	d4 12 68 0c 	l.sw 12(r18),r13
    37a0:	d4 12 68 08 	l.sw 8(r18),r13
    37a4:	d4 12 88 04 	l.sw 4(r18),r17
    37a8:	e2 70 98 00 	l.add r19,r16,r19
    37ac:	d4 13 a8 00 	l.sw 0(r19),r21
    37b0:	04 00 03 11 	l.jal 43f4 <__malloc_unlock>
    37b4:	e0 76 b0 04 	l.or r3,r22,r22
    37b8:	00 00 00 05 	l.j 37cc <_malloc_r+0x354>
    37bc:	9d 70 00 08 	l.addi r11,r16,8
    37c0:	aa 20 00 0c 	l.ori r17,r0,0xc
    37c4:	d4 16 88 00 	l.sw 0(r22),r17
    37c8:	19 60 00 00 	l.movhi r11,0x0
    37cc:	85 c1 00 00 	l.lwz r14,0(r1)
    37d0:	86 01 00 04 	l.lwz r16,4(r1)
    37d4:	86 41 00 08 	l.lwz r18,8(r1)
    37d8:	86 81 00 0c 	l.lwz r20,12(r1)
    37dc:	86 c1 00 10 	l.lwz r22,16(r1)
    37e0:	87 01 00 14 	l.lwz r24,20(r1)
    37e4:	87 41 00 18 	l.lwz r26,24(r1)
    37e8:	87 81 00 1c 	l.lwz r28,28(r1)
    37ec:	87 c1 00 20 	l.lwz r30,32(r1)
    37f0:	84 41 00 24 	l.lwz r2,36(r1)
    37f4:	85 21 00 28 	l.lwz r9,40(r1)
    37f8:	44 00 48 00 	l.jr r9
    37fc:	9c 21 00 2c 	l.addi r1,r1,44
    3800:	aa 20 02 00 	l.ori r17,r0,0x200
    3804:	03 ff ff 6a 	l.j 35ac <_malloc_r+0x134>
    3808:	ab a0 00 3f 	l.ori r29,r0,0x3f
    380c:	86 11 00 0c 	l.lwz r16,12(r17)
    3810:	e4 11 80 00 	l.sfeq r17,r16
    3814:	0f ff ff 3a 	l.bnf 34fc <_malloc_r+0x84>
    3818:	9f 39 00 02 	l.addi r25,r25,2
    381c:	9d b4 00 08 	l.addi r13,r20,8
    3820:	86 14 00 10 	l.lwz r16,16(r20)
    3824:	e4 30 68 00 	l.sfne r16,r13
    3828:	13 ff ff 80 	l.bf 3628 <_malloc_r+0x1b0>
    382c:	ae 20 ff fc 	l.xori r17,r0,-4
    3830:	aa 20 00 02 	l.ori r17,r0,0x2
    3834:	e2 39 88 88 	l.sra r17,r25,r17
    3838:	aa e0 00 01 	l.ori r23,r0,0x1
    383c:	e2 f7 88 08 	l.sll r23,r23,r17
    3840:	86 74 00 04 	l.lwz r19,4(r20)
    3844:	e4 57 98 00 	l.sfgtu r23,r19
    3848:	0f ff ff a1 	l.bnf 36cc <_malloc_r+0x254>
    384c:	e2 37 98 03 	l.and r17,r23,r19
    3850:	ae 20 ff fc 	l.xori r17,r0,-4
    3854:	86 14 00 08 	l.lwz r16,8(r20)
    3858:	87 50 00 04 	l.lwz r26,4(r16)
    385c:	e3 da 88 03 	l.and r30,r26,r17
    3860:	e4 9e 90 00 	l.sfltu r30,r18
    3864:	10 00 00 06 	l.bf 387c <_malloc_r+0x404>
    3868:	e2 3e 90 02 	l.sub r17,r30,r18
    386c:	aa 60 00 0f 	l.ori r19,r0,0xf
    3870:	e5 51 98 00 	l.sfgts r17,r19
    3874:	10 00 00 5f 	l.bf 39f0 <_malloc_r+0x578>
    3878:	aa 72 00 01 	l.ori r19,r18,0x1
    387c:	ae 20 ff ff 	l.xori r17,r0,-1
    3880:	1b 80 00 01 	l.movhi r28,0x1
    3884:	86 74 04 08 	l.lwz r19,1032(r20)
    3888:	e4 33 88 00 	l.sfne r19,r17
    388c:	87 5c 94 b8 	l.lwz r26,-27464(r28)
    3890:	e3 10 f0 00 	l.add r24,r16,r30
    3894:	0c 00 00 f9 	l.bnf 3c78 <_malloc_r+0x800>
    3898:	e3 52 d0 00 	l.add r26,r18,r26
    389c:	9f 5a 10 0f 	l.addi r26,r26,4111
    38a0:	ae 20 f0 00 	l.xori r17,r0,-4096
    38a4:	e3 5a 88 03 	l.and r26,r26,r17
    38a8:	e0 9a d0 04 	l.or r4,r26,r26
    38ac:	04 00 0a 79 	l.jal 6290 <_sbrk_r>
    38b0:	e0 76 b0 04 	l.or r3,r22,r22
    38b4:	ae 20 ff ff 	l.xori r17,r0,-1
    38b8:	e4 2b 88 00 	l.sfne r11,r17
    38bc:	0c 00 00 bd 	l.bnf 3bb0 <_malloc_r+0x738>
    38c0:	e1 cb 58 04 	l.or r14,r11,r11
    38c4:	e4 b8 58 00 	l.sfleu r24,r11
    38c8:	0c 00 00 b8 	l.bnf 3ba8 <_malloc_r+0x730>
    38cc:	e4 10 a0 00 	l.sfeq r16,r20
    38d0:	9f 9c 94 b8 	l.addi r28,r28,-27464
    38d4:	84 9c 00 04 	l.lwz r4,4(r28)
    38d8:	e0 9a 20 00 	l.add r4,r26,r4
    38dc:	d4 1c 20 04 	l.sw 4(r28),r4
    38e0:	e4 38 58 00 	l.sfne r24,r11
    38e4:	0c 00 01 12 	l.bnf 3d2c <_malloc_r+0x8b4>
    38e8:	e2 64 20 04 	l.or r19,r4,r4
    38ec:	ae a0 ff ff 	l.xori r21,r0,-1
    38f0:	86 34 04 08 	l.lwz r17,1032(r20)
    38f4:	e4 31 a8 00 	l.sfne r17,r21
    38f8:	0c 00 01 17 	l.bnf 3d54 <_malloc_r+0x8dc>
    38fc:	e2 2e c0 02 	l.sub r17,r14,r24
    3900:	e2 31 98 00 	l.add r17,r17,r19
    3904:	d4 1c 88 04 	l.sw 4(r28),r17
    3908:	a4 4e 00 07 	l.andi r2,r14,0x7
    390c:	1a 20 00 00 	l.movhi r17,0x0
    3910:	e4 02 88 00 	l.sfeq r2,r17
    3914:	10 00 00 e3 	l.bf 3ca0 <_malloc_r+0x828>
    3918:	e0 8e d0 00 	l.add r4,r14,r26
    391c:	e1 6e 10 02 	l.sub r11,r14,r2
    3920:	9d cb 00 08 	l.addi r14,r11,8
    3924:	a8 80 10 08 	l.ori r4,r0,0x1008
    3928:	e0 84 10 02 	l.sub r4,r4,r2
    392c:	e3 4e d0 00 	l.add r26,r14,r26
    3930:	e0 84 d0 02 	l.sub r4,r4,r26
    3934:	a7 04 0f ff 	l.andi r24,r4,0xfff
    3938:	e0 98 c0 04 	l.or r4,r24,r24
    393c:	04 00 0a 55 	l.jal 6290 <_sbrk_r>
    3940:	e0 76 b0 04 	l.or r3,r22,r22
    3944:	ae 20 ff ff 	l.xori r17,r0,-1
    3948:	e4 0b 88 00 	l.sfeq r11,r17
    394c:	10 00 01 1d 	l.bf 3dc0 <_malloc_r+0x948>
    3950:	15 00 00 00 	l.nop 0x0
    3954:	e1 6b 70 02 	l.sub r11,r11,r14
    3958:	e3 4b c0 00 	l.add r26,r11,r24
    395c:	84 9c 00 04 	l.lwz r4,4(r28)
    3960:	d4 14 70 08 	l.sw 8(r20),r14
    3964:	ab 5a 00 01 	l.ori r26,r26,0x1
    3968:	e0 98 20 00 	l.add r4,r24,r4
    396c:	d4 1c 20 04 	l.sw 4(r28),r4
    3970:	e4 10 a0 00 	l.sfeq r16,r20
    3974:	10 00 00 fa 	l.bf 3d5c <_malloc_r+0x8e4>
    3978:	d4 0e d0 04 	l.sw 4(r14),r26
    397c:	aa a0 00 0f 	l.ori r21,r0,0xf
    3980:	e4 5e a8 00 	l.sfgtu r30,r21
    3984:	0c 00 00 f8 	l.bnf 3d64 <_malloc_r+0x8ec>
    3988:	ae e0 ff f8 	l.xori r23,r0,-8
    398c:	9e 3e ff f4 	l.addi r17,r30,-12
    3990:	e2 31 b8 03 	l.and r17,r17,r23
    3994:	86 70 00 04 	l.lwz r19,4(r16)
    3998:	a6 73 00 01 	l.andi r19,r19,0x1
    399c:	e2 73 88 04 	l.or r19,r19,r17
    39a0:	d4 10 98 04 	l.sw 4(r16),r19
    39a4:	aa e0 00 05 	l.ori r23,r0,0x5
    39a8:	e2 70 88 00 	l.add r19,r16,r17
    39ac:	d4 13 b8 04 	l.sw 4(r19),r23
    39b0:	e4 51 a8 00 	l.sfgtu r17,r21
    39b4:	10 00 01 08 	l.bf 3dd4 <_malloc_r+0x95c>
    39b8:	d4 13 b8 08 	l.sw 8(r19),r23
    39bc:	e2 0e 70 04 	l.or r16,r14,r14
    39c0:	87 4e 00 04 	l.lwz r26,4(r14)
    39c4:	86 3c 00 2c 	l.lwz r17,44(r28)
    39c8:	e4 71 20 00 	l.sfgeu r17,r4
    39cc:	10 00 00 03 	l.bf 39d8 <_malloc_r+0x560>
    39d0:	15 00 00 00 	l.nop 0x0
    39d4:	d4 1c 20 2c 	l.sw 44(r28),r4
    39d8:	86 3c 00 30 	l.lwz r17,48(r28)
    39dc:	e4 71 20 00 	l.sfgeu r17,r4
    39e0:	10 00 00 76 	l.bf 3bb8 <_malloc_r+0x740>
    39e4:	15 00 00 00 	l.nop 0x0
    39e8:	00 00 00 74 	l.j 3bb8 <_malloc_r+0x740>
    39ec:	d4 1c 20 30 	l.sw 48(r28),r4
    39f0:	d4 10 98 04 	l.sw 4(r16),r19
    39f4:	e2 50 90 00 	l.add r18,r16,r18
    39f8:	d4 14 90 08 	l.sw 8(r20),r18
    39fc:	aa 31 00 01 	l.ori r17,r17,0x1
    3a00:	d4 12 88 04 	l.sw 4(r18),r17
    3a04:	04 00 02 7c 	l.jal 43f4 <__malloc_unlock>
    3a08:	e0 76 b0 04 	l.or r3,r22,r22
    3a0c:	03 ff ff 70 	l.j 37cc <_malloc_r+0x354>
    3a10:	9d 70 00 08 	l.addi r11,r16,8
    3a14:	e2 7b 88 48 	l.srl r19,r27,r17
    3a18:	aa 20 09 ff 	l.ori r17,r0,0x9ff
    3a1c:	e4 5b 88 00 	l.sfgtu r27,r17
    3a20:	0c 00 00 5c 	l.bnf 3b90 <_malloc_r+0x718>
    3a24:	aa 20 00 06 	l.ori r17,r0,0x6
    3a28:	aa 20 00 14 	l.ori r17,r0,0x14
    3a2c:	e4 53 88 00 	l.sfgtu r19,r17
    3a30:	10 00 00 a7 	l.bf 3ccc <_malloc_r+0x854>
    3a34:	aa 20 00 54 	l.ori r17,r0,0x54
    3a38:	9e 33 00 5c 	l.addi r17,r19,92
    3a3c:	aa a0 00 03 	l.ori r21,r0,0x3
    3a40:	9e 73 00 5b 	l.addi r19,r19,91
    3a44:	e2 31 a8 08 	l.sll r17,r17,r21
    3a48:	e2 34 88 00 	l.add r17,r20,r17
    3a4c:	9e b1 ff f8 	l.addi r21,r17,-8
    3a50:	86 31 00 00 	l.lwz r17,0(r17)
    3a54:	e4 35 88 00 	l.sfne r21,r17
    3a58:	0c 00 00 8a 	l.bnf 3c80 <_malloc_r+0x808>
    3a5c:	ae e0 ff fc 	l.xori r23,r0,-4
    3a60:	86 71 00 04 	l.lwz r19,4(r17)
    3a64:	e2 73 b8 03 	l.and r19,r19,r23
    3a68:	e4 53 d8 00 	l.sfgtu r19,r27
    3a6c:	0c 00 00 06 	l.bnf 3a84 <_malloc_r+0x60c>
    3a70:	15 00 00 00 	l.nop 0x0
    3a74:	86 31 00 08 	l.lwz r17,8(r17)
    3a78:	e4 15 88 00 	l.sfeq r21,r17
    3a7c:	0f ff ff f9 	l.bnf 3a60 <_malloc_r+0x5e8>
    3a80:	15 00 00 00 	l.nop 0x0
    3a84:	86 b1 00 0c 	l.lwz r21,12(r17)
    3a88:	86 74 00 04 	l.lwz r19,4(r20)
    3a8c:	d4 10 a8 0c 	l.sw 12(r16),r21
    3a90:	d4 10 88 08 	l.sw 8(r16),r17
    3a94:	d4 15 80 08 	l.sw 8(r21),r16
    3a98:	03 ff ff 05 	l.j 36ac <_malloc_r+0x234>
    3a9c:	d4 11 80 0c 	l.sw 12(r17),r16
    3aa0:	e4 51 98 00 	l.sfgtu r17,r19
    3aa4:	0c 00 00 52 	l.bnf 3bec <_malloc_r+0x774>
    3aa8:	9f 31 00 5c 	l.addi r25,r17,92
    3aac:	aa 60 00 54 	l.ori r19,r0,0x54
    3ab0:	e4 51 98 00 	l.sfgtu r17,r19
    3ab4:	10 00 00 8f 	l.bf 3cf0 <_malloc_r+0x878>
    3ab8:	aa 60 01 54 	l.ori r19,r0,0x154
    3abc:	aa 20 00 0c 	l.ori r17,r0,0xc
    3ac0:	e2 32 88 48 	l.srl r17,r18,r17
    3ac4:	9f 31 00 6f 	l.addi r25,r17,111
    3ac8:	9f b1 00 6e 	l.addi r29,r17,110
    3acc:	aa 20 00 03 	l.ori r17,r0,0x3
    3ad0:	03 ff fe b7 	l.j 35ac <_malloc_r+0x134>
    3ad4:	e2 39 88 08 	l.sll r17,r25,r17
    3ad8:	9d 8c 00 01 	l.addi r12,r12,1
    3adc:	a6 2c 00 03 	l.andi r17,r12,0x3
    3ae0:	1a 60 00 00 	l.movhi r19,0x0
    3ae4:	e4 31 98 00 	l.sfne r17,r19
    3ae8:	13 ff ff 11 	l.bf 372c <_malloc_r+0x2b4>
    3aec:	9f 7b 00 08 	l.addi r27,r27,8
    3af0:	00 00 00 48 	l.j 3c10 <_malloc_r+0x798>
    3af4:	a6 39 00 03 	l.andi r17,r25,0x3
    3af8:	e2 70 98 00 	l.add r19,r16,r19
    3afc:	86 b3 00 04 	l.lwz r21,4(r19)
    3b00:	aa b5 00 01 	l.ori r21,r21,0x1
    3b04:	d4 13 a8 04 	l.sw 4(r19),r21
    3b08:	86 70 00 08 	l.lwz r19,8(r16)
    3b0c:	d4 13 88 0c 	l.sw 12(r19),r17
    3b10:	d4 11 98 08 	l.sw 8(r17),r19
    3b14:	04 00 02 38 	l.jal 43f4 <__malloc_unlock>
    3b18:	e0 76 b0 04 	l.or r3,r22,r22
    3b1c:	03 ff ff 2c 	l.j 37cc <_malloc_r+0x354>
    3b20:	9d 70 00 08 	l.addi r11,r16,8
    3b24:	aa 20 00 03 	l.ori r17,r0,0x3
    3b28:	e3 32 88 48 	l.srl r25,r18,r17
    3b2c:	03 ff fe 6c 	l.j 34dc <_malloc_r+0x64>
    3b30:	9e 32 00 08 	l.addi r17,r18,8
    3b34:	e3 70 d8 00 	l.add r27,r16,r27
    3b38:	86 3b 00 04 	l.lwz r17,4(r27)
    3b3c:	aa 31 00 01 	l.ori r17,r17,0x1
    3b40:	d4 1b 88 04 	l.sw 4(r27),r17
    3b44:	04 00 02 2c 	l.jal 43f4 <__malloc_unlock>
    3b48:	e0 76 b0 04 	l.or r3,r22,r22
    3b4c:	03 ff ff 20 	l.j 37cc <_malloc_r+0x354>
    3b50:	9d 70 00 08 	l.addi r11,r16,8
    3b54:	aa 72 00 01 	l.ori r19,r18,0x1
    3b58:	d4 10 98 04 	l.sw 4(r16),r19
    3b5c:	e2 50 90 00 	l.add r18,r16,r18
    3b60:	d4 14 90 14 	l.sw 20(r20),r18
    3b64:	d4 14 90 10 	l.sw 16(r20),r18
    3b68:	aa 71 00 01 	l.ori r19,r17,0x1
    3b6c:	d4 12 68 0c 	l.sw 12(r18),r13
    3b70:	d4 12 68 08 	l.sw 8(r18),r13
    3b74:	d4 12 98 04 	l.sw 4(r18),r19
    3b78:	e3 70 d8 00 	l.add r27,r16,r27
    3b7c:	d4 1b 88 00 	l.sw 0(r27),r17
    3b80:	04 00 02 1d 	l.jal 43f4 <__malloc_unlock>
    3b84:	e0 76 b0 04 	l.or r3,r22,r22
    3b88:	03 ff ff 11 	l.j 37cc <_malloc_r+0x354>
    3b8c:	9d 70 00 08 	l.addi r11,r16,8
    3b90:	e2 7b 88 48 	l.srl r19,r27,r17
    3b94:	9e 33 00 39 	l.addi r17,r19,57
    3b98:	aa a0 00 03 	l.ori r21,r0,0x3
    3b9c:	9e 73 00 38 	l.addi r19,r19,56
    3ba0:	03 ff ff aa 	l.j 3a48 <_malloc_r+0x5d0>
    3ba4:	e2 31 a8 08 	l.sll r17,r17,r21
    3ba8:	10 00 00 5c 	l.bf 3d18 <_malloc_r+0x8a0>
    3bac:	15 00 00 00 	l.nop 0x0
    3bb0:	86 14 00 08 	l.lwz r16,8(r20)
    3bb4:	87 50 00 04 	l.lwz r26,4(r16)
    3bb8:	ae 20 ff fc 	l.xori r17,r0,-4
    3bbc:	e3 5a 88 03 	l.and r26,r26,r17
    3bc0:	e4 9a 90 00 	l.sfltu r26,r18
    3bc4:	10 00 00 06 	l.bf 3bdc <_malloc_r+0x764>
    3bc8:	e2 3a 90 02 	l.sub r17,r26,r18
    3bcc:	aa 60 00 0f 	l.ori r19,r0,0xf
    3bd0:	e5 51 98 00 	l.sfgts r17,r19
    3bd4:	13 ff ff 87 	l.bf 39f0 <_malloc_r+0x578>
    3bd8:	aa 72 00 01 	l.ori r19,r18,0x1
    3bdc:	04 00 02 06 	l.jal 43f4 <__malloc_unlock>
    3be0:	e0 76 b0 04 	l.or r3,r22,r22
    3be4:	03 ff fe fa 	l.j 37cc <_malloc_r+0x354>
    3be8:	19 60 00 00 	l.movhi r11,0x0
    3bec:	9f b1 00 5b 	l.addi r29,r17,91
    3bf0:	aa 20 00 03 	l.ori r17,r0,0x3
    3bf4:	03 ff fe 6e 	l.j 35ac <_malloc_r+0x134>
    3bf8:	e2 39 88 08 	l.sll r17,r25,r17
    3bfc:	86 2f 00 08 	l.lwz r17,8(r15)
    3c00:	e4 11 78 00 	l.sfeq r17,r15
    3c04:	0c 00 00 8c 	l.bnf 3e34 <_malloc_r+0x9bc>
    3c08:	1a 60 00 00 	l.movhi r19,0x0
    3c0c:	a6 39 00 03 	l.andi r17,r25,0x3
    3c10:	e4 31 98 00 	l.sfne r17,r19
    3c14:	9d ef ff f8 	l.addi r15,r15,-8
    3c18:	13 ff ff f9 	l.bf 3bfc <_malloc_r+0x784>
    3c1c:	9f 39 ff ff 	l.addi r25,r25,-1
    3c20:	ae 37 ff ff 	l.xori r17,r23,-1
    3c24:	86 74 00 04 	l.lwz r19,4(r20)
    3c28:	e2 31 98 03 	l.and r17,r17,r19
    3c2c:	d4 14 88 04 	l.sw 4(r20),r17
    3c30:	e2 f7 b8 00 	l.add r23,r23,r23
    3c34:	e4 57 88 00 	l.sfgtu r23,r17
    3c38:	13 ff ff 06 	l.bf 3850 <_malloc_r+0x3d8>
    3c3c:	1a a0 00 00 	l.movhi r21,0x0
    3c40:	e4 17 a8 00 	l.sfeq r23,r21
    3c44:	13 ff ff 03 	l.bf 3850 <_malloc_r+0x3d8>
    3c48:	e2 77 88 03 	l.and r19,r23,r17
    3c4c:	e4 33 a8 00 	l.sfne r19,r21
    3c50:	10 00 00 08 	l.bf 3c70 <_malloc_r+0x7f8>
    3c54:	15 00 00 00 	l.nop 0x0
    3c58:	e2 f7 b8 00 	l.add r23,r23,r23
    3c5c:	e2 77 88 03 	l.and r19,r23,r17
    3c60:	1a a0 00 00 	l.movhi r21,0x0
    3c64:	e4 13 a8 00 	l.sfeq r19,r21
    3c68:	13 ff ff fc 	l.bf 3c58 <_malloc_r+0x7e0>
    3c6c:	9d 8c 00 04 	l.addi r12,r12,4
    3c70:	03 ff fe aa 	l.j 3718 <_malloc_r+0x2a0>
    3c74:	e3 2c 60 04 	l.or r25,r12,r12
    3c78:	03 ff ff 0c 	l.j 38a8 <_malloc_r+0x430>
    3c7c:	9f 5a 00 10 	l.addi r26,r26,16
    3c80:	aa e0 00 02 	l.ori r23,r0,0x2
    3c84:	e2 f3 b8 88 	l.sra r23,r19,r23
    3c88:	aa 60 00 01 	l.ori r19,r0,0x1
    3c8c:	e2 73 b8 08 	l.sll r19,r19,r23
    3c90:	86 f4 00 04 	l.lwz r23,4(r20)
    3c94:	e2 73 b8 04 	l.or r19,r19,r23
    3c98:	03 ff ff 7d 	l.j 3a8c <_malloc_r+0x614>
    3c9c:	d4 14 98 04 	l.sw 4(r20),r19
    3ca0:	e0 80 20 02 	l.sub r4,r0,r4
    3ca4:	a7 04 0f ff 	l.andi r24,r4,0xfff
    3ca8:	e0 98 c0 04 	l.or r4,r24,r24
    3cac:	04 00 09 79 	l.jal 6290 <_sbrk_r>
    3cb0:	e0 76 b0 04 	l.or r3,r22,r22
    3cb4:	ae 20 ff ff 	l.xori r17,r0,-1
    3cb8:	e4 0b 88 00 	l.sfeq r11,r17
    3cbc:	0f ff ff 26 	l.bnf 3954 <_malloc_r+0x4dc>
    3cc0:	15 00 00 00 	l.nop 0x0
    3cc4:	03 ff ff 26 	l.j 395c <_malloc_r+0x4e4>
    3cc8:	1b 00 00 00 	l.movhi r24,0x0
    3ccc:	e4 53 88 00 	l.sfgtu r19,r17
    3cd0:	10 00 00 28 	l.bf 3d70 <_malloc_r+0x8f8>
    3cd4:	aa 20 00 0c 	l.ori r17,r0,0xc
    3cd8:	e2 7b 88 48 	l.srl r19,r27,r17
    3cdc:	9e 33 00 6f 	l.addi r17,r19,111
    3ce0:	aa a0 00 03 	l.ori r21,r0,0x3
    3ce4:	9e 73 00 6e 	l.addi r19,r19,110
    3ce8:	03 ff ff 58 	l.j 3a48 <_malloc_r+0x5d0>
    3cec:	e2 31 a8 08 	l.sll r17,r17,r21
    3cf0:	e4 51 98 00 	l.sfgtu r17,r19
    3cf4:	10 00 00 29 	l.bf 3d98 <_malloc_r+0x920>
    3cf8:	aa 60 05 54 	l.ori r19,r0,0x554
    3cfc:	aa 20 00 0f 	l.ori r17,r0,0xf
    3d00:	e2 32 88 48 	l.srl r17,r18,r17
    3d04:	9f 31 00 78 	l.addi r25,r17,120
    3d08:	9f b1 00 77 	l.addi r29,r17,119
    3d0c:	aa 20 00 03 	l.ori r17,r0,0x3
    3d10:	03 ff fe 27 	l.j 35ac <_malloc_r+0x134>
    3d14:	e2 39 88 08 	l.sll r17,r25,r17
    3d18:	9f 9c 94 b8 	l.addi r28,r28,-27464
    3d1c:	86 3c 00 04 	l.lwz r17,4(r28)
    3d20:	e2 7a 88 00 	l.add r19,r26,r17
    3d24:	03 ff fe f2 	l.j 38ec <_malloc_r+0x474>
    3d28:	d4 1c 98 04 	l.sw 4(r28),r19
    3d2c:	a6 38 0f ff 	l.andi r17,r24,0xfff
    3d30:	1a a0 00 00 	l.movhi r21,0x0
    3d34:	e4 31 a8 00 	l.sfne r17,r21
    3d38:	13 ff fe ee 	l.bf 38f0 <_malloc_r+0x478>
    3d3c:	ae a0 ff ff 	l.xori r21,r0,-1
    3d40:	e3 5e d0 00 	l.add r26,r30,r26
    3d44:	ab 5a 00 01 	l.ori r26,r26,0x1
    3d48:	86 14 00 08 	l.lwz r16,8(r20)
    3d4c:	03 ff ff 1e 	l.j 39c4 <_malloc_r+0x54c>
    3d50:	d4 10 d0 04 	l.sw 4(r16),r26
    3d54:	03 ff fe ed 	l.j 3908 <_malloc_r+0x490>
    3d58:	d4 14 74 08 	l.sw 1032(r20),r14
    3d5c:	03 ff ff 1a 	l.j 39c4 <_malloc_r+0x54c>
    3d60:	e2 0e 70 04 	l.or r16,r14,r14
    3d64:	aa 20 00 01 	l.ori r17,r0,0x1
    3d68:	03 ff ff 9d 	l.j 3bdc <_malloc_r+0x764>
    3d6c:	d4 0e 88 04 	l.sw 4(r14),r17
    3d70:	aa 20 01 54 	l.ori r17,r0,0x154
    3d74:	e4 53 88 00 	l.sfgtu r19,r17
    3d78:	10 00 00 1e 	l.bf 3df0 <_malloc_r+0x978>
    3d7c:	aa 20 00 0f 	l.ori r17,r0,0xf
    3d80:	e2 7b 88 48 	l.srl r19,r27,r17
    3d84:	9e 33 00 78 	l.addi r17,r19,120
    3d88:	aa a0 00 03 	l.ori r21,r0,0x3
    3d8c:	9e 73 00 77 	l.addi r19,r19,119
    3d90:	03 ff ff 2e 	l.j 3a48 <_malloc_r+0x5d0>
    3d94:	e2 31 a8 08 	l.sll r17,r17,r21
    3d98:	e4 51 98 00 	l.sfgtu r17,r19
    3d9c:	10 00 00 1f 	l.bf 3e18 <_malloc_r+0x9a0>
    3da0:	15 00 00 00 	l.nop 0x0
    3da4:	aa 20 00 12 	l.ori r17,r0,0x12
    3da8:	e2 32 88 48 	l.srl r17,r18,r17
    3dac:	9f 31 00 7d 	l.addi r25,r17,125
    3db0:	9f b1 00 7c 	l.addi r29,r17,124
    3db4:	aa 20 00 03 	l.ori r17,r0,0x3
    3db8:	03 ff fd fd 	l.j 35ac <_malloc_r+0x134>
    3dbc:	e2 39 88 08 	l.sll r17,r25,r17
    3dc0:	9c 42 ff f8 	l.addi r2,r2,-8
    3dc4:	e3 5a 10 00 	l.add r26,r26,r2
    3dc8:	e3 5a 70 02 	l.sub r26,r26,r14
    3dcc:	03 ff fe e4 	l.j 395c <_malloc_r+0x4e4>
    3dd0:	1b 00 00 00 	l.movhi r24,0x0
    3dd4:	9c 90 00 08 	l.addi r4,r16,8
    3dd8:	04 00 05 ba 	l.jal 54c0 <_free_r>
    3ddc:	e0 76 b0 04 	l.or r3,r22,r22
    3de0:	84 9c 00 04 	l.lwz r4,4(r28)
    3de4:	86 14 00 08 	l.lwz r16,8(r20)
    3de8:	03 ff fe f7 	l.j 39c4 <_malloc_r+0x54c>
    3dec:	87 50 00 04 	l.lwz r26,4(r16)
    3df0:	aa 20 05 54 	l.ori r17,r0,0x554
    3df4:	e4 53 88 00 	l.sfgtu r19,r17
    3df8:	10 00 00 0c 	l.bf 3e28 <_malloc_r+0x9b0>
    3dfc:	aa a0 00 03 	l.ori r21,r0,0x3
    3e00:	aa 20 00 12 	l.ori r17,r0,0x12
    3e04:	e2 7b 88 48 	l.srl r19,r27,r17
    3e08:	9e 33 00 7d 	l.addi r17,r19,125
    3e0c:	9e 73 00 7c 	l.addi r19,r19,124
    3e10:	03 ff ff 0e 	l.j 3a48 <_malloc_r+0x5d0>
    3e14:	e2 31 a8 08 	l.sll r17,r17,r21
    3e18:	aa 20 03 f8 	l.ori r17,r0,0x3f8
    3e1c:	ab 20 00 7f 	l.ori r25,r0,0x7f
    3e20:	03 ff fd e3 	l.j 35ac <_malloc_r+0x134>
    3e24:	ab a0 00 7e 	l.ori r29,r0,0x7e
    3e28:	aa 20 03 f8 	l.ori r17,r0,0x3f8
    3e2c:	03 ff ff 07 	l.j 3a48 <_malloc_r+0x5d0>
    3e30:	aa 60 00 7e 	l.ori r19,r0,0x7e
    3e34:	03 ff ff 7f 	l.j 3c30 <_malloc_r+0x7b8>
    3e38:	86 34 00 04 	l.lwz r17,4(r20)

00003e3c <memchr>:
    3e3c:	a6 23 00 03 	l.andi r17,r3,0x3
    3e40:	1a 60 00 00 	l.movhi r19,0x0
    3e44:	e4 11 98 00 	l.sfeq r17,r19
    3e48:	10 00 00 14 	l.bf 3e98 <memchr+0x5c>
    3e4c:	a6 a4 00 ff 	l.andi r21,r4,0xff
    3e50:	9e e5 ff ff 	l.addi r23,r5,-1
    3e54:	e2 e3 b8 00 	l.add r23,r3,r23
    3e58:	00 00 00 0b 	l.j 3e84 <memchr+0x48>
    3e5c:	e0 a3 28 00 	l.add r5,r3,r5
    3e60:	8e 63 00 00 	l.lbz r19,0(r3)
    3e64:	e4 13 a8 00 	l.sfeq r19,r21
    3e68:	10 00 00 21 	l.bf 3eec <memchr+0xb0>
    3e6c:	1b 20 00 00 	l.movhi r25,0x0
    3e70:	9c 63 00 01 	l.addi r3,r3,1
    3e74:	a6 63 00 03 	l.andi r19,r3,0x3
    3e78:	e4 33 c8 00 	l.sfne r19,r25
    3e7c:	0c 00 00 09 	l.bnf 3ea0 <memchr+0x64>
    3e80:	ab 20 00 03 	l.ori r25,r0,0x3
    3e84:	e4 05 18 00 	l.sfeq r5,r3
    3e88:	0f ff ff f6 	l.bnf 3e60 <memchr+0x24>
    3e8c:	e2 37 18 02 	l.sub r17,r23,r3
    3e90:	44 00 48 00 	l.jr r9
    3e94:	19 60 00 00 	l.movhi r11,0x0
    3e98:	e2 25 28 04 	l.or r17,r5,r5
    3e9c:	ab 20 00 03 	l.ori r25,r0,0x3
    3ea0:	e4 51 c8 00 	l.sfgtu r17,r25
    3ea4:	10 00 00 14 	l.bf 3ef4 <memchr+0xb8>
    3ea8:	aa 60 00 08 	l.ori r19,r0,0x8
    3eac:	1a 60 00 00 	l.movhi r19,0x0
    3eb0:	e4 31 98 00 	l.sfne r17,r19
    3eb4:	0f ff ff f7 	l.bnf 3e90 <memchr+0x54>
    3eb8:	15 00 00 00 	l.nop 0x0
    3ebc:	e2 23 88 00 	l.add r17,r3,r17
    3ec0:	00 00 00 05 	l.j 3ed4 <memchr+0x98>
    3ec4:	e1 63 18 04 	l.or r11,r3,r3
    3ec8:	e4 31 58 00 	l.sfne r17,r11
    3ecc:	0f ff ff f1 	l.bnf 3e90 <memchr+0x54>
    3ed0:	15 00 00 00 	l.nop 0x0
    3ed4:	8e 6b 00 00 	l.lbz r19,0(r11)
    3ed8:	e4 13 a8 00 	l.sfeq r19,r21
    3edc:	0f ff ff fb 	l.bnf 3ec8 <memchr+0x8c>
    3ee0:	9d 6b 00 01 	l.addi r11,r11,1
    3ee4:	44 00 48 00 	l.jr r9
    3ee8:	9d 6b ff ff 	l.addi r11,r11,-1
    3eec:	44 00 48 00 	l.jr r9
    3ef0:	e1 63 18 04 	l.or r11,r3,r3
    3ef4:	e2 64 98 08 	l.sll r19,r4,r19
    3ef8:	a6 73 ff ff 	l.andi r19,r19,0xffff
    3efc:	a4 84 00 ff 	l.andi r4,r4,0xff
    3f00:	e2 73 20 04 	l.or r19,r19,r4
    3f04:	aa e0 00 10 	l.ori r23,r0,0x10
    3f08:	e0 93 b8 08 	l.sll r4,r19,r23
    3f0c:	1b a0 fe fe 	l.movhi r29,0xfefe
    3f10:	1b 60 80 80 	l.movhi r27,0x8080
    3f14:	e0 84 98 04 	l.or r4,r4,r19
    3f18:	ab bd fe ff 	l.ori r29,r29,0xfeff
    3f1c:	ab 7b 80 80 	l.ori r27,r27,0x8080
    3f20:	86 63 00 00 	l.lwz r19,0(r3)
    3f24:	e2 64 98 05 	l.xor r19,r4,r19
    3f28:	e2 f3 e8 00 	l.add r23,r19,r29
    3f2c:	ae 73 ff ff 	l.xori r19,r19,-1
    3f30:	e2 77 98 03 	l.and r19,r23,r19
    3f34:	e2 73 d8 03 	l.and r19,r19,r27
    3f38:	1a e0 00 00 	l.movhi r23,0x0
    3f3c:	e4 33 b8 00 	l.sfne r19,r23
    3f40:	13 ff ff df 	l.bf 3ebc <memchr+0x80>
    3f44:	15 00 00 00 	l.nop 0x0
    3f48:	9e 31 ff fc 	l.addi r17,r17,-4
    3f4c:	e4 51 c8 00 	l.sfgtu r17,r25
    3f50:	13 ff ff f4 	l.bf 3f20 <memchr+0xe4>
    3f54:	9c 63 00 04 	l.addi r3,r3,4
    3f58:	03 ff ff d6 	l.j 3eb0 <memchr+0x74>
    3f5c:	1a 60 00 00 	l.movhi r19,0x0

00003f60 <memcpy>:
    3f60:	aa 20 00 0f 	l.ori r17,r0,0xf
    3f64:	e4 a5 88 00 	l.sfleu r5,r17
    3f68:	10 00 00 3b 	l.bf 4054 <memcpy+0xf4>
    3f6c:	e1 63 18 04 	l.or r11,r3,r3
    3f70:	e2 24 18 04 	l.or r17,r4,r3
    3f74:	a6 31 00 03 	l.andi r17,r17,0x3
    3f78:	1a 60 00 00 	l.movhi r19,0x0
    3f7c:	e4 11 98 00 	l.sfeq r17,r19
    3f80:	0c 00 00 44 	l.bnf 4090 <memcpy+0x130>
    3f84:	9e a5 ff ff 	l.addi r21,r5,-1
    3f88:	aa 20 00 04 	l.ori r17,r0,0x4
    3f8c:	9f 65 ff f0 	l.addi r27,r5,-16
    3f90:	e3 7b 88 48 	l.srl r27,r27,r17
    3f94:	9f 7b 00 01 	l.addi r27,r27,1
    3f98:	e3 7b 88 08 	l.sll r27,r27,r17
    3f9c:	e3 23 d8 00 	l.add r25,r3,r27
    3fa0:	e2 64 20 04 	l.or r19,r4,r4
    3fa4:	e2 23 18 04 	l.or r17,r3,r3
    3fa8:	86 b3 00 04 	l.lwz r21,4(r19)
    3fac:	9e 31 00 10 	l.addi r17,r17,16
    3fb0:	d7 f1 af f4 	l.sw -12(r17),r21
    3fb4:	86 f3 00 00 	l.lwz r23,0(r19)
    3fb8:	86 b3 00 08 	l.lwz r21,8(r19)
    3fbc:	d7 f1 bf f0 	l.sw -16(r17),r23
    3fc0:	9e 73 00 10 	l.addi r19,r19,16
    3fc4:	d7 f1 af f8 	l.sw -8(r17),r21
    3fc8:	e4 39 88 00 	l.sfne r25,r17
    3fcc:	86 b3 ff fc 	l.lwz r21,-4(r19)
    3fd0:	13 ff ff f6 	l.bf 3fa8 <memcpy+0x48>
    3fd4:	d7 f1 af fc 	l.sw -4(r17),r21
    3fd8:	a6 65 00 0c 	l.andi r19,r5,0xc
    3fdc:	1a a0 00 00 	l.movhi r21,0x0
    3fe0:	e4 13 a8 00 	l.sfeq r19,r21
    3fe4:	e0 84 d8 00 	l.add r4,r4,r27
    3fe8:	10 00 00 2c 	l.bf 4098 <memcpy+0x138>
    3fec:	a6 e5 00 0f 	l.andi r23,r5,0xf
    3ff0:	e2 64 20 04 	l.or r19,r4,r4
    3ff4:	e3 31 88 04 	l.or r25,r17,r17
    3ff8:	ab a0 00 03 	l.ori r29,r0,0x3
    3ffc:	9e 73 00 04 	l.addi r19,r19,4
    4000:	e2 b7 98 02 	l.sub r21,r23,r19
    4004:	9f 39 00 04 	l.addi r25,r25,4
    4008:	e2 a4 a8 00 	l.add r21,r4,r21
    400c:	87 73 ff fc 	l.lwz r27,-4(r19)
    4010:	e4 55 e8 00 	l.sfgtu r21,r29
    4014:	13 ff ff fa 	l.bf 3ffc <memcpy+0x9c>
    4018:	d7 f9 df fc 	l.sw -4(r25),r27
    401c:	aa a0 00 02 	l.ori r21,r0,0x2
    4020:	9e 77 ff fc 	l.addi r19,r23,-4
    4024:	e2 73 a8 48 	l.srl r19,r19,r21
    4028:	9e 73 00 01 	l.addi r19,r19,1
    402c:	e2 73 a8 08 	l.sll r19,r19,r21
    4030:	a4 a5 00 03 	l.andi r5,r5,0x3
    4034:	e2 31 98 00 	l.add r17,r17,r19
    4038:	e0 84 98 00 	l.add r4,r4,r19
    403c:	1a 60 00 00 	l.movhi r19,0x0
    4040:	e4 25 98 00 	l.sfne r5,r19
    4044:	10 00 00 09 	l.bf 4068 <memcpy+0x108>
    4048:	9e a5 ff ff 	l.addi r21,r5,-1
    404c:	44 00 48 00 	l.jr r9
    4050:	15 00 00 00 	l.nop 0x0
    4054:	e2 23 18 04 	l.or r17,r3,r3
    4058:	1a 60 00 00 	l.movhi r19,0x0
    405c:	e4 25 98 00 	l.sfne r5,r19
    4060:	0f ff ff fb 	l.bnf 404c <memcpy+0xec>
    4064:	9e a5 ff ff 	l.addi r21,r5,-1
    4068:	9e b5 00 01 	l.addi r21,r21,1
    406c:	e2 b1 a8 00 	l.add r21,r17,r21
    4070:	9e 31 00 01 	l.addi r17,r17,1
    4074:	8e 64 00 00 	l.lbz r19,0(r4)
    4078:	db f1 9f ff 	l.sb -1(r17),r19
    407c:	e4 31 a8 00 	l.sfne r17,r21
    4080:	13 ff ff fc 	l.bf 4070 <memcpy+0x110>
    4084:	9c 84 00 01 	l.addi r4,r4,1
    4088:	44 00 48 00 	l.jr r9
    408c:	15 00 00 00 	l.nop 0x0
    4090:	03 ff ff f6 	l.j 4068 <memcpy+0x108>
    4094:	e2 23 18 04 	l.or r17,r3,r3
    4098:	03 ff ff f0 	l.j 4058 <memcpy+0xf8>
    409c:	e0 b7 b8 04 	l.or r5,r23,r23

000040a0 <memmove>:
    40a0:	e4 a3 20 00 	l.sfleu r3,r4
    40a4:	10 00 00 11 	l.bf 40e8 <memmove+0x48>
    40a8:	e1 63 18 04 	l.or r11,r3,r3
    40ac:	e2 24 28 00 	l.add r17,r4,r5
    40b0:	e4 b1 18 00 	l.sfleu r17,r3
    40b4:	10 00 00 0d 	l.bf 40e8 <memmove+0x48>
    40b8:	1a a0 00 00 	l.movhi r21,0x0
    40bc:	e4 05 a8 00 	l.sfeq r5,r21
    40c0:	10 00 00 08 	l.bf 40e0 <memmove+0x40>
    40c4:	e2 63 28 00 	l.add r19,r3,r5
    40c8:	9e 31 ff ff 	l.addi r17,r17,-1
    40cc:	9e 73 ff ff 	l.addi r19,r19,-1
    40d0:	92 b1 00 00 	l.lbs r21,0(r17)
    40d4:	e4 24 88 00 	l.sfne r4,r17
    40d8:	13 ff ff fc 	l.bf 40c8 <memmove+0x28>
    40dc:	d8 13 a8 00 	l.sb 0(r19),r21
    40e0:	44 00 48 00 	l.jr r9
    40e4:	15 00 00 00 	l.nop 0x0
    40e8:	aa 20 00 0f 	l.ori r17,r0,0xf
    40ec:	e4 a5 88 00 	l.sfleu r5,r17
    40f0:	0c 00 00 11 	l.bnf 4134 <memmove+0x94>
    40f4:	e2 24 58 04 	l.or r17,r4,r11
    40f8:	e2 2b 58 04 	l.or r17,r11,r11
    40fc:	1a 60 00 00 	l.movhi r19,0x0
    4100:	e4 25 98 00 	l.sfne r5,r19
    4104:	0f ff ff f7 	l.bnf 40e0 <memmove+0x40>
    4108:	9e a5 ff ff 	l.addi r21,r5,-1
    410c:	9e b5 00 01 	l.addi r21,r21,1
    4110:	e2 b1 a8 00 	l.add r21,r17,r21
    4114:	9e 31 00 01 	l.addi r17,r17,1
    4118:	92 64 00 00 	l.lbs r19,0(r4)
    411c:	db f1 9f ff 	l.sb -1(r17),r19
    4120:	e4 31 a8 00 	l.sfne r17,r21
    4124:	13 ff ff fc 	l.bf 4114 <memmove+0x74>
    4128:	9c 84 00 01 	l.addi r4,r4,1
    412c:	44 00 48 00 	l.jr r9
    4130:	15 00 00 00 	l.nop 0x0
    4134:	a6 31 00 03 	l.andi r17,r17,0x3
    4138:	1a 60 00 00 	l.movhi r19,0x0
    413c:	e4 11 98 00 	l.sfeq r17,r19
    4140:	0c 00 00 30 	l.bnf 4200 <memmove+0x160>
    4144:	9e a5 ff ff 	l.addi r21,r5,-1
    4148:	aa 20 00 04 	l.ori r17,r0,0x4
    414c:	9f 25 ff f0 	l.addi r25,r5,-16
    4150:	e3 39 88 48 	l.srl r25,r25,r17
    4154:	9f 39 00 01 	l.addi r25,r25,1
    4158:	e3 39 88 08 	l.sll r25,r25,r17
    415c:	e2 eb c8 00 	l.add r23,r11,r25
    4160:	e2 64 20 04 	l.or r19,r4,r4
    4164:	e2 2b 58 04 	l.or r17,r11,r11
    4168:	86 b3 00 00 	l.lwz r21,0(r19)
    416c:	d4 11 a8 00 	l.sw 0(r17),r21
    4170:	86 b3 00 04 	l.lwz r21,4(r19)
    4174:	9e 31 00 10 	l.addi r17,r17,16
    4178:	d7 f1 af f4 	l.sw -12(r17),r21
    417c:	86 b3 00 08 	l.lwz r21,8(r19)
    4180:	9e 73 00 10 	l.addi r19,r19,16
    4184:	d7 f1 af f8 	l.sw -8(r17),r21
    4188:	86 b3 ff fc 	l.lwz r21,-4(r19)
    418c:	e4 37 88 00 	l.sfne r23,r17
    4190:	13 ff ff f6 	l.bf 4168 <memmove+0xc8>
    4194:	d7 f1 af fc 	l.sw -4(r17),r21
    4198:	a6 65 00 0c 	l.andi r19,r5,0xc
    419c:	1a a0 00 00 	l.movhi r21,0x0
    41a0:	e4 13 a8 00 	l.sfeq r19,r21
    41a4:	e0 84 c8 00 	l.add r4,r4,r25
    41a8:	10 00 00 18 	l.bf 4208 <memmove+0x168>
    41ac:	a6 e5 00 0f 	l.andi r23,r5,0xf
    41b0:	e2 64 20 04 	l.or r19,r4,r4
    41b4:	e3 31 88 04 	l.or r25,r17,r17
    41b8:	ab a0 00 03 	l.ori r29,r0,0x3
    41bc:	9e 73 00 04 	l.addi r19,r19,4
    41c0:	e2 b7 98 02 	l.sub r21,r23,r19
    41c4:	9f 39 00 04 	l.addi r25,r25,4
    41c8:	e2 a4 a8 00 	l.add r21,r4,r21
    41cc:	87 73 ff fc 	l.lwz r27,-4(r19)
    41d0:	e4 55 e8 00 	l.sfgtu r21,r29
    41d4:	13 ff ff fa 	l.bf 41bc <memmove+0x11c>
    41d8:	d7 f9 df fc 	l.sw -4(r25),r27
    41dc:	aa a0 00 02 	l.ori r21,r0,0x2
    41e0:	9e 77 ff fc 	l.addi r19,r23,-4
    41e4:	e2 73 a8 48 	l.srl r19,r19,r21
    41e8:	9e 73 00 01 	l.addi r19,r19,1
    41ec:	e2 73 a8 08 	l.sll r19,r19,r21
    41f0:	a4 a5 00 03 	l.andi r5,r5,0x3
    41f4:	e2 31 98 00 	l.add r17,r17,r19
    41f8:	03 ff ff c1 	l.j 40fc <memmove+0x5c>
    41fc:	e0 84 98 00 	l.add r4,r4,r19
    4200:	03 ff ff c3 	l.j 410c <memmove+0x6c>
    4204:	e2 2b 58 04 	l.or r17,r11,r11
    4208:	03 ff ff bd 	l.j 40fc <memmove+0x5c>
    420c:	e0 b7 b8 04 	l.or r5,r23,r23

00004210 <memset>:
    4210:	a6 23 00 03 	l.andi r17,r3,0x3
    4214:	1a 60 00 00 	l.movhi r19,0x0
    4218:	e4 11 98 00 	l.sfeq r17,r19
    421c:	10 00 00 12 	l.bf 4264 <memset+0x54>
    4220:	e1 63 18 04 	l.or r11,r3,r3
    4224:	9e e5 ff ff 	l.addi r23,r5,-1
    4228:	e2 23 18 04 	l.or r17,r3,r3
    422c:	e0 a3 28 00 	l.add r5,r3,r5
    4230:	00 00 00 06 	l.j 4248 <memset+0x38>
    4234:	e2 e3 b8 00 	l.add r23,r3,r23
    4238:	1b 20 00 00 	l.movhi r25,0x0
    423c:	e4 33 c8 00 	l.sfne r19,r25
    4240:	0c 00 00 0b 	l.bnf 426c <memset+0x5c>
    4244:	db f1 27 ff 	l.sb -1(r17),r4
    4248:	e2 b7 88 02 	l.sub r21,r23,r17
    424c:	e4 31 28 00 	l.sfne r17,r5
    4250:	9e 31 00 01 	l.addi r17,r17,1
    4254:	13 ff ff f9 	l.bf 4238 <memset+0x28>
    4258:	a6 71 00 03 	l.andi r19,r17,0x3
    425c:	44 00 48 00 	l.jr r9
    4260:	15 00 00 00 	l.nop 0x0
    4264:	e2 23 18 04 	l.or r17,r3,r3
    4268:	e2 a5 28 04 	l.or r21,r5,r5
    426c:	aa 60 00 03 	l.ori r19,r0,0x3
    4270:	e4 b5 98 00 	l.sfleu r21,r19
    4274:	10 00 00 2a 	l.bf 431c <memset+0x10c>
    4278:	1a 60 00 00 	l.movhi r19,0x0
    427c:	a6 e4 00 ff 	l.andi r23,r4,0xff
    4280:	aa 60 00 08 	l.ori r19,r0,0x8
    4284:	e2 77 98 08 	l.sll r19,r23,r19
    4288:	e2 f3 b8 04 	l.or r23,r19,r23
    428c:	aa 60 00 10 	l.ori r19,r0,0x10
    4290:	e2 77 98 08 	l.sll r19,r23,r19
    4294:	e2 73 b8 04 	l.or r19,r19,r23
    4298:	aa e0 00 0f 	l.ori r23,r0,0xf
    429c:	e4 b5 b8 00 	l.sfleu r21,r23
    42a0:	10 00 00 13 	l.bf 42ec <memset+0xdc>
    42a4:	ab 20 00 04 	l.ori r25,r0,0x4
    42a8:	9e f5 ff f0 	l.addi r23,r21,-16
    42ac:	e2 f7 c8 48 	l.srl r23,r23,r25
    42b0:	9e f7 00 01 	l.addi r23,r23,1
    42b4:	e2 f7 c8 08 	l.sll r23,r23,r25
    42b8:	e2 f1 b8 00 	l.add r23,r17,r23
    42bc:	d4 11 98 00 	l.sw 0(r17),r19
    42c0:	d4 11 98 04 	l.sw 4(r17),r19
    42c4:	d4 11 98 08 	l.sw 8(r17),r19
    42c8:	9e 31 00 10 	l.addi r17,r17,16
    42cc:	e4 37 88 00 	l.sfne r23,r17
    42d0:	13 ff ff fb 	l.bf 42bc <memset+0xac>
    42d4:	d7 f1 9f fc 	l.sw -4(r17),r19
    42d8:	a6 f5 00 0c 	l.andi r23,r21,0xc
    42dc:	1b 20 00 00 	l.movhi r25,0x0
    42e0:	e4 17 c8 00 	l.sfeq r23,r25
    42e4:	10 00 00 0d 	l.bf 4318 <memset+0x108>
    42e8:	a6 b5 00 0f 	l.andi r21,r21,0xf
    42ec:	ab 20 00 02 	l.ori r25,r0,0x2
    42f0:	9e f5 ff fc 	l.addi r23,r21,-4
    42f4:	e2 f7 c8 48 	l.srl r23,r23,r25
    42f8:	9e f7 00 01 	l.addi r23,r23,1
    42fc:	e2 f7 c8 08 	l.sll r23,r23,r25
    4300:	e2 f1 b8 00 	l.add r23,r17,r23
    4304:	9e 31 00 04 	l.addi r17,r17,4
    4308:	e4 37 88 00 	l.sfne r23,r17
    430c:	13 ff ff fe 	l.bf 4304 <memset+0xf4>
    4310:	d7 f1 9f fc 	l.sw -4(r17),r19
    4314:	a6 b5 00 03 	l.andi r21,r21,0x3
    4318:	1a 60 00 00 	l.movhi r19,0x0
    431c:	e4 15 98 00 	l.sfeq r21,r19
    4320:	13 ff ff cf 	l.bf 425c <memset+0x4c>
    4324:	15 00 00 00 	l.nop 0x0
    4328:	aa 60 00 18 	l.ori r19,r0,0x18
    432c:	e0 84 98 08 	l.sll r4,r4,r19
    4330:	e0 84 98 88 	l.sra r4,r4,r19
    4334:	e2 b1 a8 00 	l.add r21,r17,r21
    4338:	9e 31 00 01 	l.addi r17,r17,1
    433c:	e4 35 88 00 	l.sfne r21,r17
    4340:	13 ff ff fe 	l.bf 4338 <memset+0x128>
    4344:	db f1 27 ff 	l.sb -1(r17),r4
    4348:	44 00 48 00 	l.jr r9
    434c:	15 00 00 00 	l.nop 0x0

00004350 <__malloc_lock>:
    4350:	9c 21 ff f0 	l.addi r1,r1,-16
    4354:	d4 01 80 00 	l.sw 0(r1),r16
    4358:	d4 01 90 04 	l.sw 4(r1),r18
    435c:	d4 01 a0 08 	l.sw 8(r1),r20
    4360:	e2 43 18 04 	l.or r18,r3,r3
    4364:	d4 01 48 0c 	l.sw 12(r1),r9
    4368:	04 00 08 4e 	l.jal 64a0 <or1k_critical_begin>
    436c:	1a 00 00 01 	l.movhi r16,0x1
    4370:	86 30 94 f0 	l.lwz r17,-27408(r16)
    4374:	e4 11 90 00 	l.sfeq r17,r18
    4378:	10 00 00 0f 	l.bf 43b4 <__malloc_lock+0x64>
    437c:	e2 8b 58 04 	l.or r20,r11,r11
    4380:	9e 10 94 f0 	l.addi r16,r16,-27408
    4384:	1a 60 00 00 	l.movhi r19,0x0
    4388:	86 30 00 00 	l.lwz r17,0(r16)
    438c:	e4 31 98 00 	l.sfne r17,r19
    4390:	13 ff ff fe 	l.bf 4388 <__malloc_lock+0x38>
    4394:	e0 b2 90 04 	l.or r5,r18,r18
    4398:	18 80 00 00 	l.movhi r4,0x0
    439c:	04 00 08 65 	l.jal 6530 <or1k_sync_cas>
    43a0:	e0 70 80 04 	l.or r3,r16,r16
    43a4:	1a 20 00 00 	l.movhi r17,0x0
    43a8:	e4 2b 88 00 	l.sfne r11,r17
    43ac:	13 ff ff f7 	l.bf 4388 <__malloc_lock+0x38>
    43b0:	1a 60 00 00 	l.movhi r19,0x0
    43b4:	1a 20 00 01 	l.movhi r17,0x1
    43b8:	1a a0 00 00 	l.movhi r21,0x0
    43bc:	86 71 94 ec 	l.lwz r19,-27412(r17)
    43c0:	e4 33 a8 00 	l.sfne r19,r21
    43c4:	10 00 00 03 	l.bf 43d0 <__malloc_lock+0x80>
    43c8:	1a 60 00 01 	l.movhi r19,0x1
    43cc:	d6 53 a4 f4 	l.sw -27404(r19),r20
    43d0:	86 71 94 ec 	l.lwz r19,-27412(r17)
    43d4:	9e 73 00 01 	l.addi r19,r19,1
    43d8:	d6 51 9c ec 	l.sw -27412(r17),r19
    43dc:	86 01 00 00 	l.lwz r16,0(r1)
    43e0:	86 41 00 04 	l.lwz r18,4(r1)
    43e4:	86 81 00 08 	l.lwz r20,8(r1)
    43e8:	85 21 00 0c 	l.lwz r9,12(r1)
    43ec:	44 00 48 00 	l.jr r9
    43f0:	9c 21 00 10 	l.addi r1,r1,16

000043f4 <__malloc_unlock>:
    43f4:	1a 20 00 01 	l.movhi r17,0x1
    43f8:	86 71 94 ec 	l.lwz r19,-27412(r17)
    43fc:	9e 73 ff ff 	l.addi r19,r19,-1
    4400:	d6 51 9c ec 	l.sw -27412(r17),r19
    4404:	1a 60 00 00 	l.movhi r19,0x0
    4408:	86 31 94 ec 	l.lwz r17,-27412(r17)
    440c:	e4 31 98 00 	l.sfne r17,r19
    4410:	0c 00 00 04 	l.bnf 4420 <__malloc_unlock+0x2c>
    4414:	15 00 00 00 	l.nop 0x0
    4418:	44 00 48 00 	l.jr r9
    441c:	15 00 00 00 	l.nop 0x0
    4420:	1a 20 00 01 	l.movhi r17,0x1
    4424:	84 71 94 f4 	l.lwz r3,-27404(r17)
    4428:	1a 20 00 01 	l.movhi r17,0x1
    442c:	d6 51 04 f0 	l.sw -27408(r17),r0
    4430:	00 00 08 29 	l.j 64d4 <or1k_critical_end>
    4434:	15 00 00 00 	l.nop 0x0

00004438 <_realloc_r>:
    4438:	9c 21 ff d8 	l.addi r1,r1,-40
    443c:	1a 20 00 00 	l.movhi r17,0x0
    4440:	d4 01 a0 0c 	l.sw 12(r1),r20
    4444:	d4 01 70 00 	l.sw 0(r1),r14
    4448:	d4 01 80 04 	l.sw 4(r1),r16
    444c:	d4 01 90 08 	l.sw 8(r1),r18
    4450:	d4 01 b0 10 	l.sw 16(r1),r22
    4454:	d4 01 c0 14 	l.sw 20(r1),r24
    4458:	d4 01 d0 18 	l.sw 24(r1),r26
    445c:	d4 01 e0 1c 	l.sw 28(r1),r28
    4460:	d4 01 f0 20 	l.sw 32(r1),r30
    4464:	d4 01 48 24 	l.sw 36(r1),r9
    4468:	e4 24 88 00 	l.sfne r4,r17
    446c:	0c 00 00 b1 	l.bnf 4730 <_realloc_r+0x2f8>
    4470:	e2 85 28 04 	l.or r20,r5,r5
    4474:	e2 c3 18 04 	l.or r22,r3,r3
    4478:	07 ff ff b6 	l.jal 4350 <__malloc_lock>
    447c:	e2 04 20 04 	l.or r16,r4,r4
    4480:	9e 54 00 0b 	l.addi r18,r20,11
    4484:	aa 20 00 16 	l.ori r17,r0,0x16
    4488:	e4 b2 88 00 	l.sfleu r18,r17
    448c:	0c 00 00 57 	l.bnf 45e8 <_realloc_r+0x1b0>
    4490:	ac 80 ff f8 	l.xori r4,r0,-8
    4494:	aa 40 00 10 	l.ori r18,r0,0x10
    4498:	e2 72 90 04 	l.or r19,r18,r18
    449c:	e4 b4 90 00 	l.sfleu r20,r18
    44a0:	0c 00 00 57 	l.bnf 45fc <_realloc_r+0x1c4>
    44a4:	af 20 ff fc 	l.xori r25,r0,-4
    44a8:	86 30 ff fc 	l.lwz r17,-4(r16)
    44ac:	e3 11 c8 03 	l.and r24,r17,r25
    44b0:	9f 50 ff f8 	l.addi r26,r16,-8
    44b4:	e5 78 98 00 	l.sfges r24,r19
    44b8:	10 00 00 85 	l.bf 46cc <_realloc_r+0x294>
    44bc:	e3 9a c0 00 	l.add r28,r26,r24
    44c0:	1a a0 00 01 	l.movhi r21,0x1
    44c4:	9f d5 8c 60 	l.addi r30,r21,-29600
    44c8:	86 fe 00 08 	l.lwz r23,8(r30)
    44cc:	e4 17 e0 00 	l.sfeq r23,r28
    44d0:	10 00 00 b2 	l.bf 4798 <_realloc_r+0x360>
    44d4:	86 bc 00 04 	l.lwz r21,4(r28)
    44d8:	ae e0 ff fe 	l.xori r23,r0,-2
    44dc:	e2 f5 b8 03 	l.and r23,r21,r23
    44e0:	e2 fc b8 00 	l.add r23,r28,r23
    44e4:	1b 60 00 00 	l.movhi r27,0x0
    44e8:	86 f7 00 04 	l.lwz r23,4(r23)
    44ec:	a6 f7 00 01 	l.andi r23,r23,0x1
    44f0:	e4 17 d8 00 	l.sfeq r23,r27
    44f4:	0c 00 00 85 	l.bnf 4708 <_realloc_r+0x2d0>
    44f8:	e2 b5 c8 03 	l.and r21,r21,r25
    44fc:	e2 f8 a8 00 	l.add r23,r24,r21
    4500:	e5 77 98 00 	l.sfges r23,r19
    4504:	10 00 00 f8 	l.bf 48e4 <_realloc_r+0x4ac>
    4508:	15 00 00 00 	l.nop 0x0
    450c:	a6 31 00 01 	l.andi r17,r17,0x1
    4510:	1a e0 00 00 	l.movhi r23,0x0
    4514:	e4 11 b8 00 	l.sfeq r17,r23
    4518:	0c 00 00 10 	l.bnf 4558 <_realloc_r+0x120>
    451c:	e0 94 a0 04 	l.or r4,r20,r20
    4520:	85 d0 ff f8 	l.lwz r14,-8(r16)
    4524:	e1 da 70 02 	l.sub r14,r26,r14
    4528:	86 2e 00 04 	l.lwz r17,4(r14)
    452c:	e2 31 c8 03 	l.and r17,r17,r25
    4530:	e2 b1 a8 00 	l.add r21,r17,r21
    4534:	e3 d5 c0 00 	l.add r30,r21,r24
    4538:	e5 7e 98 00 	l.sfges r30,r19
    453c:	10 00 00 fb 	l.bf 4928 <_realloc_r+0x4f0>
    4540:	9c b8 ff fc 	l.addi r5,r24,-4
    4544:	e3 d8 88 00 	l.add r30,r24,r17
    4548:	e5 9e 98 00 	l.sflts r30,r19
    454c:	0c 00 00 3c 	l.bnf 463c <_realloc_r+0x204>
    4550:	9c b8 ff fc 	l.addi r5,r24,-4
    4554:	e0 94 a0 04 	l.or r4,r20,r20
    4558:	07 ff fb c8 	l.jal 3478 <_malloc_r>
    455c:	e0 76 b0 04 	l.or r3,r22,r22
    4560:	1a 20 00 00 	l.movhi r17,0x0
    4564:	e4 2b 88 00 	l.sfne r11,r17
    4568:	0c 00 00 1c 	l.bnf 45d8 <_realloc_r+0x1a0>
    456c:	e2 8b 58 04 	l.or r20,r11,r11
    4570:	ae 60 ff fe 	l.xori r19,r0,-2
    4574:	86 30 ff fc 	l.lwz r17,-4(r16)
    4578:	e2 31 98 03 	l.and r17,r17,r19
    457c:	e2 3a 88 00 	l.add r17,r26,r17
    4580:	9e 6b ff f8 	l.addi r19,r11,-8
    4584:	e4 31 98 00 	l.sfne r17,r19
    4588:	0c 00 00 de 	l.bnf 4900 <_realloc_r+0x4c8>
    458c:	9c b8 ff fc 	l.addi r5,r24,-4
    4590:	aa 20 00 24 	l.ori r17,r0,0x24
    4594:	e4 45 88 00 	l.sfgtu r5,r17
    4598:	10 00 00 e0 	l.bf 4918 <_realloc_r+0x4e0>
    459c:	e0 90 80 04 	l.or r4,r16,r16
    45a0:	aa 60 00 13 	l.ori r19,r0,0x13
    45a4:	e4 a5 98 00 	l.sfleu r5,r19
    45a8:	0c 00 00 b7 	l.bnf 4884 <_realloc_r+0x44c>
    45ac:	86 b0 00 00 	l.lwz r21,0(r16)
    45b0:	e2 2b 58 04 	l.or r17,r11,r11
    45b4:	e2 70 80 04 	l.or r19,r16,r16
    45b8:	d4 11 a8 00 	l.sw 0(r17),r21
    45bc:	86 b3 00 04 	l.lwz r21,4(r19)
    45c0:	d4 11 a8 04 	l.sw 4(r17),r21
    45c4:	86 73 00 08 	l.lwz r19,8(r19)
    45c8:	d4 11 98 08 	l.sw 8(r17),r19
    45cc:	e0 90 80 04 	l.or r4,r16,r16
    45d0:	04 00 03 bc 	l.jal 54c0 <_free_r>
    45d4:	e0 76 b0 04 	l.or r3,r22,r22
    45d8:	07 ff ff 87 	l.jal 43f4 <__malloc_unlock>
    45dc:	e0 76 b0 04 	l.or r3,r22,r22
    45e0:	00 00 00 0b 	l.j 460c <_realloc_r+0x1d4>
    45e4:	e1 74 a0 04 	l.or r11,r20,r20
    45e8:	e2 52 20 03 	l.and r18,r18,r4
    45ec:	1a 20 00 00 	l.movhi r17,0x0
    45f0:	e5 92 88 00 	l.sflts r18,r17
    45f4:	0f ff ff aa 	l.bnf 449c <_realloc_r+0x64>
    45f8:	e2 72 90 04 	l.or r19,r18,r18
    45fc:	aa 20 00 0c 	l.ori r17,r0,0xc
    4600:	d4 16 88 00 	l.sw 0(r22),r17
    4604:	1a 80 00 00 	l.movhi r20,0x0
    4608:	e1 74 a0 04 	l.or r11,r20,r20
    460c:	85 c1 00 00 	l.lwz r14,0(r1)
    4610:	86 01 00 04 	l.lwz r16,4(r1)
    4614:	86 41 00 08 	l.lwz r18,8(r1)
    4618:	86 81 00 0c 	l.lwz r20,12(r1)
    461c:	86 c1 00 10 	l.lwz r22,16(r1)
    4620:	87 01 00 14 	l.lwz r24,20(r1)
    4624:	87 41 00 18 	l.lwz r26,24(r1)
    4628:	87 81 00 1c 	l.lwz r28,28(r1)
    462c:	87 c1 00 20 	l.lwz r30,32(r1)
    4630:	85 21 00 24 	l.lwz r9,36(r1)
    4634:	44 00 48 00 	l.jr r9
    4638:	9c 21 00 28 	l.addi r1,r1,40
    463c:	86 2e 00 0c 	l.lwz r17,12(r14)
    4640:	86 6e 00 08 	l.lwz r19,8(r14)
    4644:	d4 13 88 0c 	l.sw 12(r19),r17
    4648:	aa a0 00 24 	l.ori r21,r0,0x24
    464c:	d4 11 98 08 	l.sw 8(r17),r19
    4650:	e4 45 a8 00 	l.sfgtu r5,r21
    4654:	9e 8e 00 08 	l.addi r20,r14,8
    4658:	10 00 00 de 	l.bf 49d0 <_realloc_r+0x598>
    465c:	e3 8e f0 00 	l.add r28,r14,r30
    4660:	aa 20 00 13 	l.ori r17,r0,0x13
    4664:	e4 a5 88 00 	l.sfleu r5,r17
    4668:	10 00 00 d8 	l.bf 49c8 <_realloc_r+0x590>
    466c:	86 70 00 00 	l.lwz r19,0(r16)
    4670:	d4 0e 98 08 	l.sw 8(r14),r19
    4674:	86 30 00 04 	l.lwz r17,4(r16)
    4678:	d4 0e 88 0c 	l.sw 12(r14),r17
    467c:	aa 20 00 1b 	l.ori r17,r0,0x1b
    4680:	e4 45 88 00 	l.sfgtu r5,r17
    4684:	0c 00 00 e3 	l.bnf 4a10 <_realloc_r+0x5d8>
    4688:	e4 05 a8 00 	l.sfeq r5,r21
    468c:	86 30 00 08 	l.lwz r17,8(r16)
    4690:	d4 0e 88 10 	l.sw 16(r14),r17
    4694:	86 30 00 0c 	l.lwz r17,12(r16)
    4698:	10 00 00 c4 	l.bf 49a8 <_realloc_r+0x570>
    469c:	d4 0e 88 14 	l.sw 20(r14),r17
    46a0:	86 70 00 10 	l.lwz r19,16(r16)
    46a4:	9e 2e 00 18 	l.addi r17,r14,24
    46a8:	9e 10 00 10 	l.addi r16,r16,16
    46ac:	d4 11 98 00 	l.sw 0(r17),r19
    46b0:	86 70 00 04 	l.lwz r19,4(r16)
    46b4:	d4 11 98 04 	l.sw 4(r17),r19
    46b8:	86 70 00 08 	l.lwz r19,8(r16)
    46bc:	e3 1e f0 04 	l.or r24,r30,r30
    46c0:	d4 11 98 08 	l.sw 8(r17),r19
    46c4:	e2 14 a0 04 	l.or r16,r20,r20
    46c8:	e3 4e 70 04 	l.or r26,r14,r14
    46cc:	e2 78 90 02 	l.sub r19,r24,r18
    46d0:	aa a0 00 0f 	l.ori r21,r0,0xf
    46d4:	e4 b3 a8 00 	l.sfleu r19,r21
    46d8:	86 3a 00 04 	l.lwz r17,4(r26)
    46dc:	0c 00 00 22 	l.bnf 4764 <_realloc_r+0x32c>
    46e0:	a6 31 00 01 	l.andi r17,r17,0x1
    46e4:	e2 38 88 04 	l.or r17,r24,r17
    46e8:	d4 1a 88 04 	l.sw 4(r26),r17
    46ec:	86 3c 00 04 	l.lwz r17,4(r28)
    46f0:	aa 31 00 01 	l.ori r17,r17,0x1
    46f4:	d4 1c 88 04 	l.sw 4(r28),r17
    46f8:	07 ff ff 3f 	l.jal 43f4 <__malloc_unlock>
    46fc:	e0 76 b0 04 	l.or r3,r22,r22
    4700:	03 ff ff c2 	l.j 4608 <_realloc_r+0x1d0>
    4704:	e2 90 80 04 	l.or r20,r16,r16
    4708:	a6 31 00 01 	l.andi r17,r17,0x1
    470c:	1a a0 00 00 	l.movhi r21,0x0
    4710:	e4 11 a8 00 	l.sfeq r17,r21
    4714:	0f ff ff 91 	l.bnf 4558 <_realloc_r+0x120>
    4718:	e0 94 a0 04 	l.or r4,r20,r20
    471c:	85 d0 ff f8 	l.lwz r14,-8(r16)
    4720:	e1 da 70 02 	l.sub r14,r26,r14
    4724:	86 2e 00 04 	l.lwz r17,4(r14)
    4728:	03 ff ff 87 	l.j 4544 <_realloc_r+0x10c>
    472c:	e2 31 c8 03 	l.and r17,r17,r25
    4730:	85 c1 00 00 	l.lwz r14,0(r1)
    4734:	86 01 00 04 	l.lwz r16,4(r1)
    4738:	86 41 00 08 	l.lwz r18,8(r1)
    473c:	86 81 00 0c 	l.lwz r20,12(r1)
    4740:	86 c1 00 10 	l.lwz r22,16(r1)
    4744:	87 01 00 14 	l.lwz r24,20(r1)
    4748:	87 41 00 18 	l.lwz r26,24(r1)
    474c:	87 81 00 1c 	l.lwz r28,28(r1)
    4750:	87 c1 00 20 	l.lwz r30,32(r1)
    4754:	85 21 00 24 	l.lwz r9,36(r1)
    4758:	e0 85 28 04 	l.or r4,r5,r5
    475c:	03 ff fb 47 	l.j 3478 <_malloc_r>
    4760:	9c 21 00 28 	l.addi r1,r1,40
    4764:	e2 31 90 04 	l.or r17,r17,r18
    4768:	d4 1a 88 04 	l.sw 4(r26),r17
    476c:	e0 9a 90 00 	l.add r4,r26,r18
    4770:	aa 73 00 01 	l.ori r19,r19,0x1
    4774:	d4 04 98 04 	l.sw 4(r4),r19
    4778:	86 3c 00 04 	l.lwz r17,4(r28)
    477c:	aa 31 00 01 	l.ori r17,r17,0x1
    4780:	d4 1c 88 04 	l.sw 4(r28),r17
    4784:	9c 84 00 08 	l.addi r4,r4,8
    4788:	04 00 03 4e 	l.jal 54c0 <_free_r>
    478c:	e0 76 b0 04 	l.or r3,r22,r22
    4790:	03 ff ff da 	l.j 46f8 <_realloc_r+0x2c0>
    4794:	15 00 00 00 	l.nop 0x0
    4798:	e2 b5 c8 03 	l.and r21,r21,r25
    479c:	e2 f8 a8 00 	l.add r23,r24,r21
    47a0:	9f 72 00 10 	l.addi r27,r18,16
    47a4:	e5 77 d8 00 	l.sfges r23,r27
    47a8:	10 00 00 42 	l.bf 48b0 <_realloc_r+0x478>
    47ac:	a6 31 00 01 	l.andi r17,r17,0x1
    47b0:	1a e0 00 00 	l.movhi r23,0x0
    47b4:	e4 11 b8 00 	l.sfeq r17,r23
    47b8:	0f ff ff 68 	l.bnf 4558 <_realloc_r+0x120>
    47bc:	e0 94 a0 04 	l.or r4,r20,r20
    47c0:	85 d0 ff f8 	l.lwz r14,-8(r16)
    47c4:	e1 da 70 02 	l.sub r14,r26,r14
    47c8:	86 ee 00 04 	l.lwz r23,4(r14)
    47cc:	e2 37 c8 03 	l.and r17,r23,r25
    47d0:	e2 b1 a8 00 	l.add r21,r17,r21
    47d4:	e3 95 c0 00 	l.add r28,r21,r24
    47d8:	e5 bb e0 00 	l.sfles r27,r28
    47dc:	0f ff ff 5a 	l.bnf 4544 <_realloc_r+0x10c>
    47e0:	9c b8 ff fc 	l.addi r5,r24,-4
    47e4:	86 2e 00 0c 	l.lwz r17,12(r14)
    47e8:	86 6e 00 08 	l.lwz r19,8(r14)
    47ec:	d4 13 88 0c 	l.sw 12(r19),r17
    47f0:	aa a0 00 24 	l.ori r21,r0,0x24
    47f4:	d4 11 98 08 	l.sw 8(r17),r19
    47f8:	e4 45 a8 00 	l.sfgtu r5,r21
    47fc:	10 00 00 93 	l.bf 4a48 <_realloc_r+0x610>
    4800:	9e 8e 00 08 	l.addi r20,r14,8
    4804:	aa 20 00 13 	l.ori r17,r0,0x13
    4808:	e4 a5 88 00 	l.sfleu r5,r17
    480c:	10 00 00 8d 	l.bf 4a40 <_realloc_r+0x608>
    4810:	86 70 00 00 	l.lwz r19,0(r16)
    4814:	d4 0e 98 08 	l.sw 8(r14),r19
    4818:	86 30 00 04 	l.lwz r17,4(r16)
    481c:	d4 0e 88 0c 	l.sw 12(r14),r17
    4820:	aa 20 00 1b 	l.ori r17,r0,0x1b
    4824:	e4 45 88 00 	l.sfgtu r5,r17
    4828:	10 00 00 8d 	l.bf 4a5c <_realloc_r+0x624>
    482c:	e4 05 a8 00 	l.sfeq r5,r21
    4830:	86 70 00 08 	l.lwz r19,8(r16)
    4834:	9e 2e 00 10 	l.addi r17,r14,16
    4838:	9e 10 00 08 	l.addi r16,r16,8
    483c:	d4 11 98 00 	l.sw 0(r17),r19
    4840:	86 70 00 04 	l.lwz r19,4(r16)
    4844:	d4 11 98 04 	l.sw 4(r17),r19
    4848:	86 70 00 08 	l.lwz r19,8(r16)
    484c:	d4 11 98 08 	l.sw 8(r17),r19
    4850:	e2 6e 90 00 	l.add r19,r14,r18
    4854:	e2 3c 90 02 	l.sub r17,r28,r18
    4858:	d4 1e 98 08 	l.sw 8(r30),r19
    485c:	aa 31 00 01 	l.ori r17,r17,0x1
    4860:	d4 13 88 04 	l.sw 4(r19),r17
    4864:	86 2e 00 04 	l.lwz r17,4(r14)
    4868:	a6 31 00 01 	l.andi r17,r17,0x1
    486c:	e2 51 90 04 	l.or r18,r17,r18
    4870:	d4 0e 90 04 	l.sw 4(r14),r18
    4874:	07 ff fe e0 	l.jal 43f4 <__malloc_unlock>
    4878:	e0 76 b0 04 	l.or r3,r22,r22
    487c:	03 ff ff 64 	l.j 460c <_realloc_r+0x1d4>
    4880:	e1 74 a0 04 	l.or r11,r20,r20
    4884:	d4 0b a8 00 	l.sw 0(r11),r21
    4888:	86 70 00 04 	l.lwz r19,4(r16)
    488c:	d4 0b 98 04 	l.sw 4(r11),r19
    4890:	aa 60 00 1b 	l.ori r19,r0,0x1b
    4894:	e4 45 98 00 	l.sfgtu r5,r19
    4898:	10 00 00 55 	l.bf 49ec <_realloc_r+0x5b4>
    489c:	e4 05 88 00 	l.sfeq r5,r17
    48a0:	9e 70 00 08 	l.addi r19,r16,8
    48a4:	9e 2b 00 08 	l.addi r17,r11,8
    48a8:	03 ff ff 44 	l.j 45b8 <_realloc_r+0x180>
    48ac:	86 b0 00 08 	l.lwz r21,8(r16)
    48b0:	e3 5a 90 00 	l.add r26,r26,r18
    48b4:	e2 37 90 02 	l.sub r17,r23,r18
    48b8:	d4 1e d0 08 	l.sw 8(r30),r26
    48bc:	aa 31 00 01 	l.ori r17,r17,0x1
    48c0:	d4 1a 88 04 	l.sw 4(r26),r17
    48c4:	86 30 ff fc 	l.lwz r17,-4(r16)
    48c8:	a6 31 00 01 	l.andi r17,r17,0x1
    48cc:	e2 51 90 04 	l.or r18,r17,r18
    48d0:	d7 f0 97 fc 	l.sw -4(r16),r18
    48d4:	07 ff fe c8 	l.jal 43f4 <__malloc_unlock>
    48d8:	e0 76 b0 04 	l.or r3,r22,r22
    48dc:	03 ff ff 4b 	l.j 4608 <_realloc_r+0x1d0>
    48e0:	e2 90 80 04 	l.or r20,r16,r16
    48e4:	86 3c 00 0c 	l.lwz r17,12(r28)
    48e8:	86 7c 00 08 	l.lwz r19,8(r28)
    48ec:	d4 13 88 0c 	l.sw 12(r19),r17
    48f0:	d4 11 98 08 	l.sw 8(r17),r19
    48f4:	e3 9a b8 00 	l.add r28,r26,r23
    48f8:	03 ff ff 75 	l.j 46cc <_realloc_r+0x294>
    48fc:	e3 17 b8 04 	l.or r24,r23,r23
    4900:	ae 60 ff fc 	l.xori r19,r0,-4
    4904:	86 2b ff fc 	l.lwz r17,-4(r11)
    4908:	e2 31 98 03 	l.and r17,r17,r19
    490c:	e3 18 88 00 	l.add r24,r24,r17
    4910:	03 ff ff 6f 	l.j 46cc <_realloc_r+0x294>
    4914:	e3 9a c0 00 	l.add r28,r26,r24
    4918:	07 ff fd e2 	l.jal 40a0 <memmove>
    491c:	e0 6b 58 04 	l.or r3,r11,r11
    4920:	03 ff ff 2c 	l.j 45d0 <_realloc_r+0x198>
    4924:	e0 90 80 04 	l.or r4,r16,r16
    4928:	86 3c 00 0c 	l.lwz r17,12(r28)
    492c:	86 7c 00 08 	l.lwz r19,8(r28)
    4930:	d4 13 88 0c 	l.sw 12(r19),r17
    4934:	d4 11 98 08 	l.sw 8(r17),r19
    4938:	86 6e 00 08 	l.lwz r19,8(r14)
    493c:	86 2e 00 0c 	l.lwz r17,12(r14)
    4940:	d4 13 88 0c 	l.sw 12(r19),r17
    4944:	d4 11 98 08 	l.sw 8(r17),r19
    4948:	aa 20 00 24 	l.ori r17,r0,0x24
    494c:	e4 45 88 00 	l.sfgtu r5,r17
    4950:	9e 8e 00 08 	l.addi r20,r14,8
    4954:	10 00 00 1f 	l.bf 49d0 <_realloc_r+0x598>
    4958:	e3 8e f0 00 	l.add r28,r14,r30
    495c:	aa 20 00 13 	l.ori r17,r0,0x13
    4960:	e4 a5 88 00 	l.sfleu r5,r17
    4964:	10 00 00 19 	l.bf 49c8 <_realloc_r+0x590>
    4968:	86 70 00 00 	l.lwz r19,0(r16)
    496c:	d4 0e 98 08 	l.sw 8(r14),r19
    4970:	86 30 00 04 	l.lwz r17,4(r16)
    4974:	d4 0e 88 0c 	l.sw 12(r14),r17
    4978:	aa 20 00 1b 	l.ori r17,r0,0x1b
    497c:	e4 45 88 00 	l.sfgtu r5,r17
    4980:	0c 00 00 24 	l.bnf 4a10 <_realloc_r+0x5d8>
    4984:	15 00 00 00 	l.nop 0x0
    4988:	86 30 00 08 	l.lwz r17,8(r16)
    498c:	d4 0e 88 10 	l.sw 16(r14),r17
    4990:	86 30 00 0c 	l.lwz r17,12(r16)
    4994:	d4 0e 88 14 	l.sw 20(r14),r17
    4998:	aa 20 00 24 	l.ori r17,r0,0x24
    499c:	e4 05 88 00 	l.sfeq r5,r17
    49a0:	0f ff ff 40 	l.bnf 46a0 <_realloc_r+0x268>
    49a4:	15 00 00 00 	l.nop 0x0
    49a8:	86 30 00 10 	l.lwz r17,16(r16)
    49ac:	d4 0e 88 18 	l.sw 24(r14),r17
    49b0:	86 30 00 14 	l.lwz r17,20(r16)
    49b4:	d4 0e 88 1c 	l.sw 28(r14),r17
    49b8:	86 70 00 18 	l.lwz r19,24(r16)
    49bc:	9e 2e 00 20 	l.addi r17,r14,32
    49c0:	03 ff ff 3b 	l.j 46ac <_realloc_r+0x274>
    49c4:	9e 10 00 18 	l.addi r16,r16,24
    49c8:	03 ff ff 39 	l.j 46ac <_realloc_r+0x274>
    49cc:	e2 34 a0 04 	l.or r17,r20,r20
    49d0:	e0 90 80 04 	l.or r4,r16,r16
    49d4:	07 ff fd b3 	l.jal 40a0 <memmove>
    49d8:	e0 74 a0 04 	l.or r3,r20,r20
    49dc:	e2 14 a0 04 	l.or r16,r20,r20
    49e0:	e3 1e f0 04 	l.or r24,r30,r30
    49e4:	03 ff ff 3a 	l.j 46cc <_realloc_r+0x294>
    49e8:	e3 4e 70 04 	l.or r26,r14,r14
    49ec:	86 70 00 08 	l.lwz r19,8(r16)
    49f0:	d4 0b 98 08 	l.sw 8(r11),r19
    49f4:	86 70 00 0c 	l.lwz r19,12(r16)
    49f8:	10 00 00 0a 	l.bf 4a20 <_realloc_r+0x5e8>
    49fc:	d4 0b 98 0c 	l.sw 12(r11),r19
    4a00:	9e 70 00 10 	l.addi r19,r16,16
    4a04:	9e 2b 00 10 	l.addi r17,r11,16
    4a08:	03 ff fe ec 	l.j 45b8 <_realloc_r+0x180>
    4a0c:	86 b0 00 10 	l.lwz r21,16(r16)
    4a10:	86 70 00 08 	l.lwz r19,8(r16)
    4a14:	9e 2e 00 10 	l.addi r17,r14,16
    4a18:	03 ff ff 25 	l.j 46ac <_realloc_r+0x274>
    4a1c:	9e 10 00 08 	l.addi r16,r16,8
    4a20:	86 30 00 10 	l.lwz r17,16(r16)
    4a24:	d4 0b 88 10 	l.sw 16(r11),r17
    4a28:	86 30 00 14 	l.lwz r17,20(r16)
    4a2c:	d4 0b 88 14 	l.sw 20(r11),r17
    4a30:	9e 70 00 18 	l.addi r19,r16,24
    4a34:	9e 2b 00 18 	l.addi r17,r11,24
    4a38:	03 ff fe e0 	l.j 45b8 <_realloc_r+0x180>
    4a3c:	86 b0 00 18 	l.lwz r21,24(r16)
    4a40:	03 ff ff 7f 	l.j 483c <_realloc_r+0x404>
    4a44:	e2 34 a0 04 	l.or r17,r20,r20
    4a48:	e0 90 80 04 	l.or r4,r16,r16
    4a4c:	07 ff fd 95 	l.jal 40a0 <memmove>
    4a50:	e0 74 a0 04 	l.or r3,r20,r20
    4a54:	03 ff ff 80 	l.j 4854 <_realloc_r+0x41c>
    4a58:	e2 6e 90 00 	l.add r19,r14,r18
    4a5c:	86 30 00 08 	l.lwz r17,8(r16)
    4a60:	d4 0e 88 10 	l.sw 16(r14),r17
    4a64:	86 30 00 0c 	l.lwz r17,12(r16)
    4a68:	10 00 00 06 	l.bf 4a80 <_realloc_r+0x648>
    4a6c:	d4 0e 88 14 	l.sw 20(r14),r17
    4a70:	86 70 00 10 	l.lwz r19,16(r16)
    4a74:	9e 2e 00 18 	l.addi r17,r14,24
    4a78:	03 ff ff 71 	l.j 483c <_realloc_r+0x404>
    4a7c:	9e 10 00 10 	l.addi r16,r16,16
    4a80:	86 30 00 10 	l.lwz r17,16(r16)
    4a84:	d4 0e 88 18 	l.sw 24(r14),r17
    4a88:	86 30 00 14 	l.lwz r17,20(r16)
    4a8c:	d4 0e 88 1c 	l.sw 28(r14),r17
    4a90:	86 70 00 18 	l.lwz r19,24(r16)
    4a94:	9e 2e 00 20 	l.addi r17,r14,32
    4a98:	03 ff ff 69 	l.j 483c <_realloc_r+0x404>
    4a9c:	9e 10 00 18 	l.addi r16,r16,24

00004aa0 <__sread>:
    4aa0:	9c 21 ff f8 	l.addi r1,r1,-8
    4aa4:	d4 01 80 00 	l.sw 0(r1),r16
    4aa8:	e2 04 20 04 	l.or r16,r4,r4
    4aac:	98 84 00 0e 	l.lhs r4,14(r4)
    4ab0:	d4 01 48 04 	l.sw 4(r1),r9
    4ab4:	04 00 04 6b 	l.jal 5c60 <_read_r>
    4ab8:	15 00 00 00 	l.nop 0x0
    4abc:	1a 20 00 00 	l.movhi r17,0x0
    4ac0:	e5 8b 88 00 	l.sflts r11,r17
    4ac4:	10 00 00 09 	l.bf 4ae8 <__sread+0x48>
    4ac8:	15 00 00 00 	l.nop 0x0
    4acc:	86 30 00 50 	l.lwz r17,80(r16)
    4ad0:	e2 31 58 00 	l.add r17,r17,r11
    4ad4:	d4 10 88 50 	l.sw 80(r16),r17
    4ad8:	85 21 00 04 	l.lwz r9,4(r1)
    4adc:	86 01 00 00 	l.lwz r16,0(r1)
    4ae0:	44 00 48 00 	l.jr r9
    4ae4:	9c 21 00 08 	l.addi r1,r1,8
    4ae8:	96 30 00 0c 	l.lhz r17,12(r16)
    4aec:	a6 31 ef ff 	l.andi r17,r17,0xefff
    4af0:	dc 10 88 0c 	l.sh 12(r16),r17
    4af4:	85 21 00 04 	l.lwz r9,4(r1)
    4af8:	86 01 00 00 	l.lwz r16,0(r1)
    4afc:	44 00 48 00 	l.jr r9
    4b00:	9c 21 00 08 	l.addi r1,r1,8

00004b04 <__seofread>:
    4b04:	44 00 48 00 	l.jr r9
    4b08:	19 60 00 00 	l.movhi r11,0x0

00004b0c <__swrite>:
    4b0c:	9c 21 ff ec 	l.addi r1,r1,-20
    4b10:	9a 24 00 0c 	l.lhs r17,12(r4)
    4b14:	a6 71 01 00 	l.andi r19,r17,0x100
    4b18:	1a a0 00 00 	l.movhi r21,0x0
    4b1c:	d4 01 80 00 	l.sw 0(r1),r16
    4b20:	d4 01 90 04 	l.sw 4(r1),r18
    4b24:	d4 01 a0 08 	l.sw 8(r1),r20
    4b28:	d4 01 b0 0c 	l.sw 12(r1),r22
    4b2c:	d4 01 48 10 	l.sw 16(r1),r9
    4b30:	e4 13 a8 00 	l.sfeq r19,r21
    4b34:	e2 04 20 04 	l.or r16,r4,r4
    4b38:	e2 43 18 04 	l.or r18,r3,r3
    4b3c:	e2 85 28 04 	l.or r20,r5,r5
    4b40:	e2 c6 30 04 	l.or r22,r6,r6
    4b44:	0c 00 00 0f 	l.bnf 4b80 <__swrite+0x74>
    4b48:	98 84 00 0e 	l.lhs r4,14(r4)
    4b4c:	ae 60 ef ff 	l.xori r19,r0,-4097
    4b50:	e2 31 98 03 	l.and r17,r17,r19
    4b54:	dc 10 88 0c 	l.sh 12(r16),r17
    4b58:	e0 d6 b0 04 	l.or r6,r22,r22
    4b5c:	e0 b4 a0 04 	l.or r5,r20,r20
    4b60:	e0 72 90 04 	l.or r3,r18,r18
    4b64:	86 01 00 00 	l.lwz r16,0(r1)
    4b68:	86 41 00 04 	l.lwz r18,4(r1)
    4b6c:	86 81 00 08 	l.lwz r20,8(r1)
    4b70:	86 c1 00 0c 	l.lwz r22,12(r1)
    4b74:	85 21 00 10 	l.lwz r9,16(r1)
    4b78:	00 00 03 d2 	l.j 5ac0 <_write_r>
    4b7c:	9c 21 00 14 	l.addi r1,r1,20
    4b80:	a8 c0 00 02 	l.ori r6,r0,0x2
    4b84:	04 00 04 29 	l.jal 5c28 <_lseek_r>
    4b88:	18 a0 00 00 	l.movhi r5,0x0
    4b8c:	9a 30 00 0c 	l.lhs r17,12(r16)
    4b90:	03 ff ff ef 	l.j 4b4c <__swrite+0x40>
    4b94:	98 90 00 0e 	l.lhs r4,14(r16)

00004b98 <__sseek>:
    4b98:	9c 21 ff f8 	l.addi r1,r1,-8
    4b9c:	d4 01 80 00 	l.sw 0(r1),r16
    4ba0:	e2 04 20 04 	l.or r16,r4,r4
    4ba4:	98 84 00 0e 	l.lhs r4,14(r4)
    4ba8:	d4 01 48 04 	l.sw 4(r1),r9
    4bac:	04 00 04 1f 	l.jal 5c28 <_lseek_r>
    4bb0:	15 00 00 00 	l.nop 0x0
    4bb4:	ae 20 ff ff 	l.xori r17,r0,-1
    4bb8:	e4 2b 88 00 	l.sfne r11,r17
    4bbc:	0c 00 00 09 	l.bnf 4be0 <__sseek+0x48>
    4bc0:	96 30 00 0c 	l.lhz r17,12(r16)
    4bc4:	aa 31 10 00 	l.ori r17,r17,0x1000
    4bc8:	dc 10 88 0c 	l.sh 12(r16),r17
    4bcc:	d4 10 58 50 	l.sw 80(r16),r11
    4bd0:	85 21 00 04 	l.lwz r9,4(r1)
    4bd4:	86 01 00 00 	l.lwz r16,0(r1)
    4bd8:	44 00 48 00 	l.jr r9
    4bdc:	9c 21 00 08 	l.addi r1,r1,8
    4be0:	a6 31 ef ff 	l.andi r17,r17,0xefff
    4be4:	dc 10 88 0c 	l.sh 12(r16),r17
    4be8:	85 21 00 04 	l.lwz r9,4(r1)
    4bec:	86 01 00 00 	l.lwz r16,0(r1)
    4bf0:	44 00 48 00 	l.jr r9
    4bf4:	9c 21 00 08 	l.addi r1,r1,8

00004bf8 <__sclose>:
    4bf8:	00 00 03 e2 	l.j 5b80 <_close_r>
    4bfc:	98 84 00 0e 	l.lhs r4,14(r4)

00004c00 <__swsetup_r>:
    4c00:	9c 21 ff f4 	l.addi r1,r1,-12
    4c04:	d4 01 80 00 	l.sw 0(r1),r16
    4c08:	d4 01 90 04 	l.sw 4(r1),r18
    4c0c:	d4 01 48 08 	l.sw 8(r1),r9
    4c10:	e2 43 18 04 	l.or r18,r3,r3
    4c14:	07 ff fa 17 	l.jal 3470 <__getreent>
    4c18:	e2 04 20 04 	l.or r16,r4,r4
    4c1c:	1a 60 00 00 	l.movhi r19,0x0
    4c20:	e4 0b 98 00 	l.sfeq r11,r19
    4c24:	10 00 00 06 	l.bf 4c3c <__swsetup_r+0x3c>
    4c28:	15 00 00 00 	l.nop 0x0
    4c2c:	86 2b 00 38 	l.lwz r17,56(r11)
    4c30:	e4 31 98 00 	l.sfne r17,r19
    4c34:	0c 00 00 56 	l.bnf 4d8c <__swsetup_r+0x18c>
    4c38:	15 00 00 00 	l.nop 0x0
    4c3c:	9a 30 00 0c 	l.lhs r17,12(r16)
    4c40:	a6 b1 00 08 	l.andi r21,r17,0x8
    4c44:	1a e0 00 00 	l.movhi r23,0x0
    4c48:	e4 15 b8 00 	l.sfeq r21,r23
    4c4c:	10 00 00 19 	l.bf 4cb0 <__swsetup_r+0xb0>
    4c50:	a6 71 ff ff 	l.andi r19,r17,0xffff
    4c54:	1a 20 00 00 	l.movhi r17,0x0
    4c58:	86 b0 00 10 	l.lwz r21,16(r16)
    4c5c:	e4 35 88 00 	l.sfne r21,r17
    4c60:	0c 00 00 29 	l.bnf 4d04 <__swsetup_r+0x104>
    4c64:	a6 33 02 80 	l.andi r17,r19,0x280
    4c68:	a6 33 00 01 	l.andi r17,r19,0x1
    4c6c:	1a e0 00 00 	l.movhi r23,0x0
    4c70:	e4 11 b8 00 	l.sfeq r17,r23
    4c74:	10 00 00 32 	l.bf 4d3c <__swsetup_r+0x13c>
    4c78:	a6 33 00 02 	l.andi r17,r19,0x2
    4c7c:	86 30 00 14 	l.lwz r17,20(r16)
    4c80:	e2 20 88 02 	l.sub r17,r0,r17
    4c84:	d4 10 88 18 	l.sw 24(r16),r17
    4c88:	1a 20 00 00 	l.movhi r17,0x0
    4c8c:	e4 35 88 00 	l.sfne r21,r17
    4c90:	0c 00 00 35 	l.bnf 4d64 <__swsetup_r+0x164>
    4c94:	d4 10 00 08 	l.sw 8(r16),r0
    4c98:	19 60 00 00 	l.movhi r11,0x0
    4c9c:	86 01 00 00 	l.lwz r16,0(r1)
    4ca0:	86 41 00 04 	l.lwz r18,4(r1)
    4ca4:	85 21 00 08 	l.lwz r9,8(r1)
    4ca8:	44 00 48 00 	l.jr r9
    4cac:	9c 21 00 0c 	l.addi r1,r1,12
    4cb0:	a6 b3 00 10 	l.andi r21,r19,0x10
    4cb4:	1a e0 00 00 	l.movhi r23,0x0
    4cb8:	e4 35 b8 00 	l.sfne r21,r23
    4cbc:	0c 00 00 4e 	l.bnf 4df4 <__swsetup_r+0x1f4>
    4cc0:	1a a0 00 00 	l.movhi r21,0x0
    4cc4:	a6 73 00 04 	l.andi r19,r19,0x4
    4cc8:	e4 33 a8 00 	l.sfne r19,r21
    4ccc:	10 00 00 36 	l.bf 4da4 <__swsetup_r+0x1a4>
    4cd0:	1a 60 00 00 	l.movhi r19,0x0
    4cd4:	86 b0 00 10 	l.lwz r21,16(r16)
    4cd8:	aa 60 00 10 	l.ori r19,r0,0x10
    4cdc:	aa 31 00 08 	l.ori r17,r17,0x8
    4ce0:	e2 31 98 08 	l.sll r17,r17,r19
    4ce4:	e2 31 98 88 	l.sra r17,r17,r19
    4ce8:	dc 10 88 0c 	l.sh 12(r16),r17
    4cec:	a6 71 ff ff 	l.andi r19,r17,0xffff
    4cf0:	1a 20 00 00 	l.movhi r17,0x0
    4cf4:	e4 35 88 00 	l.sfne r21,r17
    4cf8:	13 ff ff dd 	l.bf 4c6c <__swsetup_r+0x6c>
    4cfc:	a6 33 00 01 	l.andi r17,r19,0x1
    4d00:	a6 33 02 80 	l.andi r17,r19,0x280
    4d04:	aa e0 02 00 	l.ori r23,r0,0x200
    4d08:	e4 11 b8 00 	l.sfeq r17,r23
    4d0c:	13 ff ff d8 	l.bf 4c6c <__swsetup_r+0x6c>
    4d10:	a6 33 00 01 	l.andi r17,r19,0x1
    4d14:	e0 90 80 04 	l.or r4,r16,r16
    4d18:	04 00 03 15 	l.jal 596c <__smakebuf_r>
    4d1c:	e0 72 90 04 	l.or r3,r18,r18
    4d20:	96 70 00 0c 	l.lhz r19,12(r16)
    4d24:	a6 33 00 01 	l.andi r17,r19,0x1
    4d28:	1a e0 00 00 	l.movhi r23,0x0
    4d2c:	e4 11 b8 00 	l.sfeq r17,r23
    4d30:	0f ff ff d3 	l.bnf 4c7c <__swsetup_r+0x7c>
    4d34:	86 b0 00 10 	l.lwz r21,16(r16)
    4d38:	a6 33 00 02 	l.andi r17,r19,0x2
    4d3c:	1a 60 00 00 	l.movhi r19,0x0
    4d40:	e4 31 98 00 	l.sfne r17,r19
    4d44:	10 00 00 16 	l.bf 4d9c <__swsetup_r+0x19c>
    4d48:	1a 20 00 00 	l.movhi r17,0x0
    4d4c:	86 30 00 14 	l.lwz r17,20(r16)
    4d50:	d4 10 88 08 	l.sw 8(r16),r17
    4d54:	1a 20 00 00 	l.movhi r17,0x0
    4d58:	e4 35 88 00 	l.sfne r21,r17
    4d5c:	13 ff ff cf 	l.bf 4c98 <__swsetup_r+0x98>
    4d60:	15 00 00 00 	l.nop 0x0
    4d64:	9a 30 00 0c 	l.lhs r17,12(r16)
    4d68:	a6 71 00 80 	l.andi r19,r17,0x80
    4d6c:	1a a0 00 00 	l.movhi r21,0x0
    4d70:	e4 13 a8 00 	l.sfeq r19,r21
    4d74:	13 ff ff ca 	l.bf 4c9c <__swsetup_r+0x9c>
    4d78:	19 60 00 00 	l.movhi r11,0x0
    4d7c:	aa 31 00 40 	l.ori r17,r17,0x40
    4d80:	dc 10 88 0c 	l.sh 12(r16),r17
    4d84:	03 ff ff c6 	l.j 4c9c <__swsetup_r+0x9c>
    4d88:	ad 60 ff ff 	l.xori r11,r0,-1
    4d8c:	07 ff f7 a1 	l.jal 2c10 <__sinit>
    4d90:	e0 6b 58 04 	l.or r3,r11,r11
    4d94:	03 ff ff ab 	l.j 4c40 <__swsetup_r+0x40>
    4d98:	9a 30 00 0c 	l.lhs r17,12(r16)
    4d9c:	03 ff ff ee 	l.j 4d54 <__swsetup_r+0x154>
    4da0:	d4 10 88 08 	l.sw 8(r16),r17
    4da4:	84 90 00 30 	l.lwz r4,48(r16)
    4da8:	e4 04 98 00 	l.sfeq r4,r19
    4dac:	10 00 00 09 	l.bf 4dd0 <__swsetup_r+0x1d0>
    4db0:	9e 70 00 40 	l.addi r19,r16,64
    4db4:	e4 04 98 00 	l.sfeq r4,r19
    4db8:	10 00 00 05 	l.bf 4dcc <__swsetup_r+0x1cc>
    4dbc:	15 00 00 00 	l.nop 0x0
    4dc0:	04 00 01 c0 	l.jal 54c0 <_free_r>
    4dc4:	e0 72 90 04 	l.or r3,r18,r18
    4dc8:	9a 30 00 0c 	l.lhs r17,12(r16)
    4dcc:	d4 10 00 30 	l.sw 48(r16),r0
    4dd0:	ae 60 ff db 	l.xori r19,r0,-37
    4dd4:	e2 31 98 03 	l.and r17,r17,r19
    4dd8:	aa 60 00 10 	l.ori r19,r0,0x10
    4ddc:	e2 31 98 08 	l.sll r17,r17,r19
    4de0:	86 b0 00 10 	l.lwz r21,16(r16)
    4de4:	e2 31 98 88 	l.sra r17,r17,r19
    4de8:	d4 10 00 04 	l.sw 4(r16),r0
    4dec:	03 ff ff bc 	l.j 4cdc <__swsetup_r+0xdc>
    4df0:	d4 10 a8 00 	l.sw 0(r16),r21
    4df4:	aa 60 00 09 	l.ori r19,r0,0x9
    4df8:	d4 12 98 00 	l.sw 0(r18),r19
    4dfc:	aa 31 00 40 	l.ori r17,r17,0x40
    4e00:	dc 10 88 0c 	l.sh 12(r16),r17
    4e04:	03 ff ff a6 	l.j 4c9c <__swsetup_r+0x9c>
    4e08:	ad 60 ff ff 	l.xori r11,r0,-1

00004e0c <_fclose_r>:
    4e0c:	9c 21 ff ec 	l.addi r1,r1,-20
    4e10:	1a 20 00 00 	l.movhi r17,0x0
    4e14:	d4 01 80 00 	l.sw 0(r1),r16
    4e18:	d4 01 90 04 	l.sw 4(r1),r18
    4e1c:	d4 01 a0 08 	l.sw 8(r1),r20
    4e20:	d4 01 b0 0c 	l.sw 12(r1),r22
    4e24:	e4 24 88 00 	l.sfne r4,r17
    4e28:	0c 00 00 10 	l.bnf 4e68 <_fclose_r+0x5c>
    4e2c:	d4 01 48 10 	l.sw 16(r1),r9
    4e30:	1a 60 00 00 	l.movhi r19,0x0
    4e34:	e4 03 98 00 	l.sfeq r3,r19
    4e38:	e2 43 18 04 	l.or r18,r3,r3
    4e3c:	10 00 00 06 	l.bf 4e54 <_fclose_r+0x48>
    4e40:	e2 04 20 04 	l.or r16,r4,r4
    4e44:	86 23 00 38 	l.lwz r17,56(r3)
    4e48:	e4 31 98 00 	l.sfne r17,r19
    4e4c:	0c 00 00 42 	l.bnf 4f54 <_fclose_r+0x148>
    4e50:	15 00 00 00 	l.nop 0x0
    4e54:	9a 30 00 0c 	l.lhs r17,12(r16)
    4e58:	1a c0 00 00 	l.movhi r22,0x0
    4e5c:	e4 11 b0 00 	l.sfeq r17,r22
    4e60:	0c 00 00 0b 	l.bnf 4e8c <_fclose_r+0x80>
    4e64:	15 00 00 00 	l.nop 0x0
    4e68:	1a 80 00 00 	l.movhi r20,0x0
    4e6c:	e1 74 a0 04 	l.or r11,r20,r20
    4e70:	86 01 00 00 	l.lwz r16,0(r1)
    4e74:	86 41 00 04 	l.lwz r18,4(r1)
    4e78:	86 81 00 08 	l.lwz r20,8(r1)
    4e7c:	86 c1 00 0c 	l.lwz r22,12(r1)
    4e80:	85 21 00 10 	l.lwz r9,16(r1)
    4e84:	44 00 48 00 	l.jr r9
    4e88:	9c 21 00 14 	l.addi r1,r1,20
    4e8c:	e0 90 80 04 	l.or r4,r16,r16
    4e90:	04 00 00 4e 	l.jal 4fc8 <__sflush_r>
    4e94:	e0 72 90 04 	l.or r3,r18,r18
    4e98:	86 30 00 2c 	l.lwz r17,44(r16)
    4e9c:	e4 11 b0 00 	l.sfeq r17,r22
    4ea0:	10 00 00 08 	l.bf 4ec0 <_fclose_r+0xb4>
    4ea4:	e2 8b 58 04 	l.or r20,r11,r11
    4ea8:	e0 72 90 04 	l.or r3,r18,r18
    4eac:	48 00 88 00 	l.jalr r17
    4eb0:	84 90 00 1c 	l.lwz r4,28(r16)
    4eb4:	e5 6b b0 00 	l.sfges r11,r22
    4eb8:	0c 00 00 2f 	l.bnf 4f74 <_fclose_r+0x168>
    4ebc:	1a 60 00 00 	l.movhi r19,0x0
    4ec0:	96 30 00 0c 	l.lhz r17,12(r16)
    4ec4:	a6 31 00 80 	l.andi r17,r17,0x80
    4ec8:	1a 60 00 00 	l.movhi r19,0x0
    4ecc:	e4 11 98 00 	l.sfeq r17,r19
    4ed0:	0c 00 00 2f 	l.bnf 4f8c <_fclose_r+0x180>
    4ed4:	e0 72 90 04 	l.or r3,r18,r18
    4ed8:	1a 20 00 00 	l.movhi r17,0x0
    4edc:	84 90 00 30 	l.lwz r4,48(r16)
    4ee0:	e4 04 88 00 	l.sfeq r4,r17
    4ee4:	10 00 00 08 	l.bf 4f04 <_fclose_r+0xf8>
    4ee8:	9e 30 00 40 	l.addi r17,r16,64
    4eec:	e4 04 88 00 	l.sfeq r4,r17
    4ef0:	10 00 00 04 	l.bf 4f00 <_fclose_r+0xf4>
    4ef4:	15 00 00 00 	l.nop 0x0
    4ef8:	04 00 01 72 	l.jal 54c0 <_free_r>
    4efc:	e0 72 90 04 	l.or r3,r18,r18
    4f00:	d4 10 00 30 	l.sw 48(r16),r0
    4f04:	1a 20 00 00 	l.movhi r17,0x0
    4f08:	84 90 00 44 	l.lwz r4,68(r16)
    4f0c:	e4 04 88 00 	l.sfeq r4,r17
    4f10:	10 00 00 05 	l.bf 4f24 <_fclose_r+0x118>
    4f14:	15 00 00 00 	l.nop 0x0
    4f18:	04 00 01 6a 	l.jal 54c0 <_free_r>
    4f1c:	e0 72 90 04 	l.or r3,r18,r18
    4f20:	d4 10 00 44 	l.sw 68(r16),r0
    4f24:	07 ff f7 44 	l.jal 2c34 <__sfp_lock_acquire>
    4f28:	15 00 00 00 	l.nop 0x0
    4f2c:	07 ff f7 44 	l.jal 2c3c <__sfp_lock_release>
    4f30:	dc 10 00 0c 	l.sh 12(r16),r0
    4f34:	e1 74 a0 04 	l.or r11,r20,r20
    4f38:	86 01 00 00 	l.lwz r16,0(r1)
    4f3c:	86 41 00 04 	l.lwz r18,4(r1)
    4f40:	86 81 00 08 	l.lwz r20,8(r1)
    4f44:	86 c1 00 0c 	l.lwz r22,12(r1)
    4f48:	85 21 00 10 	l.lwz r9,16(r1)
    4f4c:	44 00 48 00 	l.jr r9
    4f50:	9c 21 00 14 	l.addi r1,r1,20
    4f54:	07 ff f7 2f 	l.jal 2c10 <__sinit>
    4f58:	1a c0 00 00 	l.movhi r22,0x0
    4f5c:	9a 30 00 0c 	l.lhs r17,12(r16)
    4f60:	e4 11 b0 00 	l.sfeq r17,r22
    4f64:	13 ff ff c1 	l.bf 4e68 <_fclose_r+0x5c>
    4f68:	15 00 00 00 	l.nop 0x0
    4f6c:	03 ff ff c9 	l.j 4e90 <_fclose_r+0x84>
    4f70:	e0 90 80 04 	l.or r4,r16,r16
    4f74:	96 30 00 0c 	l.lhz r17,12(r16)
    4f78:	a6 31 00 80 	l.andi r17,r17,0x80
    4f7c:	e4 11 98 00 	l.sfeq r17,r19
    4f80:	13 ff ff d6 	l.bf 4ed8 <_fclose_r+0xcc>
    4f84:	ae 80 ff ff 	l.xori r20,r0,-1
    4f88:	e0 72 90 04 	l.or r3,r18,r18
    4f8c:	04 00 01 4d 	l.jal 54c0 <_free_r>
    4f90:	84 90 00 10 	l.lwz r4,16(r16)
    4f94:	03 ff ff d2 	l.j 4edc <_fclose_r+0xd0>
    4f98:	1a 20 00 00 	l.movhi r17,0x0

00004f9c <fclose>:
    4f9c:	9c 21 ff f8 	l.addi r1,r1,-8
    4fa0:	d4 01 80 00 	l.sw 0(r1),r16
    4fa4:	d4 01 48 04 	l.sw 4(r1),r9
    4fa8:	07 ff f9 32 	l.jal 3470 <__getreent>
    4fac:	e2 03 18 04 	l.or r16,r3,r3
    4fb0:	e0 90 80 04 	l.or r4,r16,r16
    4fb4:	85 21 00 04 	l.lwz r9,4(r1)
    4fb8:	86 01 00 00 	l.lwz r16,0(r1)
    4fbc:	e0 6b 58 04 	l.or r3,r11,r11
    4fc0:	03 ff ff 93 	l.j 4e0c <_fclose_r>
    4fc4:	9c 21 00 08 	l.addi r1,r1,8

00004fc8 <__sflush_r>:
    4fc8:	9c 21 ff ec 	l.addi r1,r1,-20
    4fcc:	9a 24 00 0c 	l.lhs r17,12(r4)
    4fd0:	a6 b1 00 08 	l.andi r21,r17,0x8
    4fd4:	1a e0 00 00 	l.movhi r23,0x0
    4fd8:	d4 01 80 00 	l.sw 0(r1),r16
    4fdc:	d4 01 b0 0c 	l.sw 12(r1),r22
    4fe0:	d4 01 90 04 	l.sw 4(r1),r18
    4fe4:	d4 01 a0 08 	l.sw 8(r1),r20
    4fe8:	d4 01 48 10 	l.sw 16(r1),r9
    4fec:	e4 35 b8 00 	l.sfne r21,r23
    4ff0:	e2 04 20 04 	l.or r16,r4,r4
    4ff4:	10 00 00 56 	l.bf 514c <__sflush_r+0x184>
    4ff8:	e2 c3 18 04 	l.or r22,r3,r3
    4ffc:	aa 31 08 00 	l.ori r17,r17,0x800
    5000:	86 64 00 04 	l.lwz r19,4(r4)
    5004:	e5 53 b8 00 	l.sfgts r19,r23
    5008:	0c 00 00 7c 	l.bnf 51f8 <__sflush_r+0x230>
    500c:	dc 04 88 0c 	l.sh 12(r4),r17
    5010:	1a e0 00 00 	l.movhi r23,0x0
    5014:	86 70 00 28 	l.lwz r19,40(r16)
    5018:	e4 13 b8 00 	l.sfeq r19,r23
    501c:	10 00 00 44 	l.bf 512c <__sflush_r+0x164>
    5020:	a6 b1 10 00 	l.andi r21,r17,0x1000
    5024:	86 56 00 00 	l.lwz r18,0(r22)
    5028:	e4 15 b8 00 	l.sfeq r21,r23
    502c:	d4 16 00 00 	l.sw 0(r22),r0
    5030:	a6 31 ff ff 	l.andi r17,r17,0xffff
    5034:	0c 00 00 79 	l.bnf 5218 <__sflush_r+0x250>
    5038:	84 90 00 1c 	l.lwz r4,28(r16)
    503c:	18 a0 00 00 	l.movhi r5,0x0
    5040:	a8 c0 00 01 	l.ori r6,r0,0x1
    5044:	48 00 98 00 	l.jalr r19
    5048:	e0 76 b0 04 	l.or r3,r22,r22
    504c:	ae 20 ff ff 	l.xori r17,r0,-1
    5050:	e4 2b 88 00 	l.sfne r11,r17
    5054:	0c 00 00 82 	l.bnf 525c <__sflush_r+0x294>
    5058:	e0 ab 58 04 	l.or r5,r11,r11
    505c:	96 30 00 0c 	l.lhz r17,12(r16)
    5060:	86 70 00 28 	l.lwz r19,40(r16)
    5064:	84 90 00 1c 	l.lwz r4,28(r16)
    5068:	a6 31 00 04 	l.andi r17,r17,0x4
    506c:	1a e0 00 00 	l.movhi r23,0x0
    5070:	e4 11 b8 00 	l.sfeq r17,r23
    5074:	10 00 00 0a 	l.bf 509c <__sflush_r+0xd4>
    5078:	18 c0 00 00 	l.movhi r6,0x0
    507c:	86 30 00 30 	l.lwz r17,48(r16)
    5080:	e4 11 b8 00 	l.sfeq r17,r23
    5084:	86 b0 00 04 	l.lwz r21,4(r16)
    5088:	10 00 00 05 	l.bf 509c <__sflush_r+0xd4>
    508c:	e0 a5 a8 02 	l.sub r5,r5,r21
    5090:	86 30 00 3c 	l.lwz r17,60(r16)
    5094:	e0 a5 88 02 	l.sub r5,r5,r17
    5098:	18 c0 00 00 	l.movhi r6,0x0
    509c:	48 00 98 00 	l.jalr r19
    50a0:	e0 76 b0 04 	l.or r3,r22,r22
    50a4:	ae 20 ff ff 	l.xori r17,r0,-1
    50a8:	e4 2b 88 00 	l.sfne r11,r17
    50ac:	10 00 00 5d 	l.bf 5220 <__sflush_r+0x258>
    50b0:	ae 60 f7 ff 	l.xori r19,r0,-2049
    50b4:	1a a0 00 00 	l.movhi r21,0x0
    50b8:	86 76 00 00 	l.lwz r19,0(r22)
    50bc:	e4 13 a8 00 	l.sfeq r19,r21
    50c0:	10 00 00 75 	l.bf 5294 <__sflush_r+0x2cc>
    50c4:	9a 30 00 0c 	l.lhs r17,12(r16)
    50c8:	aa a0 00 1d 	l.ori r21,r0,0x1d
    50cc:	e4 13 a8 00 	l.sfeq r19,r21
    50d0:	10 00 00 05 	l.bf 50e4 <__sflush_r+0x11c>
    50d4:	aa a0 00 16 	l.ori r21,r0,0x16
    50d8:	e4 13 a8 00 	l.sfeq r19,r21
    50dc:	0c 00 00 71 	l.bnf 52a0 <__sflush_r+0x2d8>
    50e0:	15 00 00 00 	l.nop 0x0
    50e4:	ae 60 f7 ff 	l.xori r19,r0,-2049
    50e8:	e2 31 98 03 	l.and r17,r17,r19
    50ec:	dc 10 88 0c 	l.sh 12(r16),r17
    50f0:	86 70 00 10 	l.lwz r19,16(r16)
    50f4:	d4 10 00 04 	l.sw 4(r16),r0
    50f8:	d4 10 98 00 	l.sw 0(r16),r19
    50fc:	1a 20 00 00 	l.movhi r17,0x0
    5100:	84 90 00 30 	l.lwz r4,48(r16)
    5104:	e4 04 88 00 	l.sfeq r4,r17
    5108:	10 00 00 09 	l.bf 512c <__sflush_r+0x164>
    510c:	d4 16 90 00 	l.sw 0(r22),r18
    5110:	9e 30 00 40 	l.addi r17,r16,64
    5114:	e4 04 88 00 	l.sfeq r4,r17
    5118:	10 00 00 04 	l.bf 5128 <__sflush_r+0x160>
    511c:	15 00 00 00 	l.nop 0x0
    5120:	04 00 00 e8 	l.jal 54c0 <_free_r>
    5124:	e0 76 b0 04 	l.or r3,r22,r22
    5128:	d4 10 00 30 	l.sw 48(r16),r0
    512c:	19 60 00 00 	l.movhi r11,0x0
    5130:	86 01 00 00 	l.lwz r16,0(r1)
    5134:	86 41 00 04 	l.lwz r18,4(r1)
    5138:	86 81 00 08 	l.lwz r20,8(r1)
    513c:	86 c1 00 0c 	l.lwz r22,12(r1)
    5140:	85 21 00 10 	l.lwz r9,16(r1)
    5144:	44 00 48 00 	l.jr r9
    5148:	9c 21 00 14 	l.addi r1,r1,20
    514c:	a6 71 ff ff 	l.andi r19,r17,0xffff
    5150:	1a 20 00 00 	l.movhi r17,0x0
    5154:	86 84 00 10 	l.lwz r20,16(r4)
    5158:	e4 14 88 00 	l.sfeq r20,r17
    515c:	13 ff ff f4 	l.bf 512c <__sflush_r+0x164>
    5160:	a6 73 00 03 	l.andi r19,r19,0x3
    5164:	86 44 00 00 	l.lwz r18,0(r4)
    5168:	e4 33 88 00 	l.sfne r19,r17
    516c:	d4 04 a0 00 	l.sw 0(r4),r20
    5170:	10 00 00 28 	l.bf 5210 <__sflush_r+0x248>
    5174:	e2 52 a0 02 	l.sub r18,r18,r20
    5178:	86 24 00 14 	l.lwz r17,20(r4)
    517c:	d4 10 88 08 	l.sw 8(r16),r17
    5180:	1a 20 00 00 	l.movhi r17,0x0
    5184:	e5 b2 88 00 	l.sfles r18,r17
    5188:	0c 00 00 07 	l.bnf 51a4 <__sflush_r+0x1dc>
    518c:	e0 d2 90 04 	l.or r6,r18,r18
    5190:	03 ff ff e8 	l.j 5130 <__sflush_r+0x168>
    5194:	19 60 00 00 	l.movhi r11,0x0
    5198:	e5 52 88 00 	l.sfgts r18,r17
    519c:	0f ff ff e4 	l.bnf 512c <__sflush_r+0x164>
    51a0:	e0 d2 90 04 	l.or r6,r18,r18
    51a4:	e0 b4 a0 04 	l.or r5,r20,r20
    51a8:	e0 76 b0 04 	l.or r3,r22,r22
    51ac:	86 30 00 24 	l.lwz r17,36(r16)
    51b0:	48 00 88 00 	l.jalr r17
    51b4:	84 90 00 1c 	l.lwz r4,28(r16)
    51b8:	1a 20 00 00 	l.movhi r17,0x0
    51bc:	e5 4b 88 00 	l.sfgts r11,r17
    51c0:	e2 52 58 02 	l.sub r18,r18,r11
    51c4:	13 ff ff f5 	l.bf 5198 <__sflush_r+0x1d0>
    51c8:	e2 94 58 00 	l.add r20,r20,r11
    51cc:	96 30 00 0c 	l.lhz r17,12(r16)
    51d0:	aa 31 00 40 	l.ori r17,r17,0x40
    51d4:	dc 10 88 0c 	l.sh 12(r16),r17
    51d8:	ad 60 ff ff 	l.xori r11,r0,-1
    51dc:	86 01 00 00 	l.lwz r16,0(r1)
    51e0:	86 41 00 04 	l.lwz r18,4(r1)
    51e4:	86 81 00 08 	l.lwz r20,8(r1)
    51e8:	86 c1 00 0c 	l.lwz r22,12(r1)
    51ec:	85 21 00 10 	l.lwz r9,16(r1)
    51f0:	44 00 48 00 	l.jr r9
    51f4:	9c 21 00 14 	l.addi r1,r1,20
    51f8:	86 64 00 3c 	l.lwz r19,60(r4)
    51fc:	e5 53 b8 00 	l.sfgts r19,r23
    5200:	13 ff ff 85 	l.bf 5014 <__sflush_r+0x4c>
    5204:	1a e0 00 00 	l.movhi r23,0x0
    5208:	03 ff ff ca 	l.j 5130 <__sflush_r+0x168>
    520c:	19 60 00 00 	l.movhi r11,0x0
    5210:	03 ff ff db 	l.j 517c <__sflush_r+0x1b4>
    5214:	1a 20 00 00 	l.movhi r17,0x0
    5218:	03 ff ff 94 	l.j 5068 <__sflush_r+0xa0>
    521c:	84 b0 00 50 	l.lwz r5,80(r16)
    5220:	96 30 00 0c 	l.lhz r17,12(r16)
    5224:	e2 31 98 03 	l.and r17,r17,r19
    5228:	aa 60 00 10 	l.ori r19,r0,0x10
    522c:	e2 31 98 08 	l.sll r17,r17,r19
    5230:	e2 31 98 88 	l.sra r17,r17,r19
    5234:	a6 71 10 00 	l.andi r19,r17,0x1000
    5238:	dc 10 88 0c 	l.sh 12(r16),r17
    523c:	86 30 00 10 	l.lwz r17,16(r16)
    5240:	d4 10 88 00 	l.sw 0(r16),r17
    5244:	1a 20 00 00 	l.movhi r17,0x0
    5248:	e4 33 88 00 	l.sfne r19,r17
    524c:	0f ff ff ad 	l.bnf 5100 <__sflush_r+0x138>
    5250:	d4 10 00 04 	l.sw 4(r16),r0
    5254:	03 ff ff ab 	l.j 5100 <__sflush_r+0x138>
    5258:	d4 10 58 50 	l.sw 80(r16),r11
    525c:	1a 60 00 00 	l.movhi r19,0x0
    5260:	86 36 00 00 	l.lwz r17,0(r22)
    5264:	e4 31 98 00 	l.sfne r17,r19
    5268:	0f ff ff 7d 	l.bnf 505c <__sflush_r+0x94>
    526c:	aa 60 00 1d 	l.ori r19,r0,0x1d
    5270:	e4 11 98 00 	l.sfeq r17,r19
    5274:	10 00 00 05 	l.bf 5288 <__sflush_r+0x2c0>
    5278:	aa 60 00 16 	l.ori r19,r0,0x16
    527c:	e4 31 98 00 	l.sfne r17,r19
    5280:	13 ff ff d3 	l.bf 51cc <__sflush_r+0x204>
    5284:	15 00 00 00 	l.nop 0x0
    5288:	d4 16 90 00 	l.sw 0(r22),r18
    528c:	03 ff ff a9 	l.j 5130 <__sflush_r+0x168>
    5290:	19 60 00 00 	l.movhi r11,0x0
    5294:	ae 60 f7 ff 	l.xori r19,r0,-2049
    5298:	03 ff ff e7 	l.j 5234 <__sflush_r+0x26c>
    529c:	e2 31 98 03 	l.and r17,r17,r19
    52a0:	aa 31 00 40 	l.ori r17,r17,0x40
    52a4:	03 ff ff a3 	l.j 5130 <__sflush_r+0x168>
    52a8:	dc 10 88 0c 	l.sh 12(r16),r17

000052ac <_fflush_r>:
    52ac:	9c 21 ff f4 	l.addi r1,r1,-12
    52b0:	1a 60 00 00 	l.movhi r19,0x0
    52b4:	d4 01 80 04 	l.sw 4(r1),r16
    52b8:	d4 01 48 08 	l.sw 8(r1),r9
    52bc:	e4 03 98 00 	l.sfeq r3,r19
    52c0:	10 00 00 06 	l.bf 52d8 <_fflush_r+0x2c>
    52c4:	e2 03 18 04 	l.or r16,r3,r3
    52c8:	86 23 00 38 	l.lwz r17,56(r3)
    52cc:	e4 31 98 00 	l.sfne r17,r19
    52d0:	0c 00 00 0b 	l.bnf 52fc <_fflush_r+0x50>
    52d4:	15 00 00 00 	l.nop 0x0
    52d8:	9a 24 00 0c 	l.lhs r17,12(r4)
    52dc:	1a 60 00 00 	l.movhi r19,0x0
    52e0:	e4 11 98 00 	l.sfeq r17,r19
    52e4:	0c 00 00 0e 	l.bnf 531c <_fflush_r+0x70>
    52e8:	19 60 00 00 	l.movhi r11,0x0
    52ec:	86 01 00 04 	l.lwz r16,4(r1)
    52f0:	85 21 00 08 	l.lwz r9,8(r1)
    52f4:	44 00 48 00 	l.jr r9
    52f8:	9c 21 00 0c 	l.addi r1,r1,12
    52fc:	07 ff f6 45 	l.jal 2c10 <__sinit>
    5300:	d4 01 20 00 	l.sw 0(r1),r4
    5304:	1a 60 00 00 	l.movhi r19,0x0
    5308:	84 81 00 00 	l.lwz r4,0(r1)
    530c:	9a 24 00 0c 	l.lhs r17,12(r4)
    5310:	e4 11 98 00 	l.sfeq r17,r19
    5314:	13 ff ff f6 	l.bf 52ec <_fflush_r+0x40>
    5318:	19 60 00 00 	l.movhi r11,0x0
    531c:	e0 70 80 04 	l.or r3,r16,r16
    5320:	85 21 00 08 	l.lwz r9,8(r1)
    5324:	86 01 00 04 	l.lwz r16,4(r1)
    5328:	03 ff ff 28 	l.j 4fc8 <__sflush_r>
    532c:	9c 21 00 0c 	l.addi r1,r1,12

00005330 <fflush>:
    5330:	1a 20 00 00 	l.movhi r17,0x0
    5334:	e4 23 88 00 	l.sfne r3,r17
    5338:	0c 00 00 0d 	l.bnf 536c <fflush+0x3c>
    533c:	18 80 00 00 	l.movhi r4,0x0
    5340:	9c 21 ff f8 	l.addi r1,r1,-8
    5344:	d4 01 80 00 	l.sw 0(r1),r16
    5348:	d4 01 48 04 	l.sw 4(r1),r9
    534c:	07 ff f8 49 	l.jal 3470 <__getreent>
    5350:	e2 03 18 04 	l.or r16,r3,r3
    5354:	e0 90 80 04 	l.or r4,r16,r16
    5358:	85 21 00 04 	l.lwz r9,4(r1)
    535c:	86 01 00 00 	l.lwz r16,0(r1)
    5360:	e0 6b 58 04 	l.or r3,r11,r11
    5364:	03 ff ff d2 	l.j 52ac <_fflush_r>
    5368:	9c 21 00 08 	l.addi r1,r1,8
    536c:	1a 20 00 00 	l.movhi r17,0x0
    5370:	9c 84 52 ac 	l.addi r4,r4,21164
    5374:	03 ff f8 04 	l.j 3384 <_fwalk_reent>
    5378:	84 71 68 18 	l.lwz r3,26648(r17)

0000537c <_malloc_trim_r>:
    537c:	9c 21 ff ec 	l.addi r1,r1,-20
    5380:	d4 01 b0 0c 	l.sw 12(r1),r22
    5384:	1a c0 00 01 	l.movhi r22,0x1
    5388:	d4 01 80 00 	l.sw 0(r1),r16
    538c:	d4 01 90 04 	l.sw 4(r1),r18
    5390:	d4 01 a0 08 	l.sw 8(r1),r20
    5394:	e2 04 20 04 	l.or r16,r4,r4
    5398:	d4 01 48 10 	l.sw 16(r1),r9
    539c:	e2 83 18 04 	l.or r20,r3,r3
    53a0:	07 ff fb ec 	l.jal 4350 <__malloc_lock>
    53a4:	9e d6 8c 60 	l.addi r22,r22,-29600
    53a8:	86 36 00 08 	l.lwz r17,8(r22)
    53ac:	86 51 00 04 	l.lwz r18,4(r17)
    53b0:	ae 20 ff fc 	l.xori r17,r0,-4
    53b4:	e2 52 88 03 	l.and r18,r18,r17
    53b8:	e2 12 80 02 	l.sub r16,r18,r16
    53bc:	aa 20 00 0c 	l.ori r17,r0,0xc
    53c0:	9e 10 0f ef 	l.addi r16,r16,4079
    53c4:	e2 10 88 48 	l.srl r16,r16,r17
    53c8:	9e 10 ff ff 	l.addi r16,r16,-1
    53cc:	e2 10 88 08 	l.sll r16,r16,r17
    53d0:	aa 20 0f ff 	l.ori r17,r0,0xfff
    53d4:	e5 50 88 00 	l.sfgts r16,r17
    53d8:	0c 00 00 09 	l.bnf 53fc <_malloc_trim_r+0x80>
    53dc:	18 80 00 00 	l.movhi r4,0x0
    53e0:	04 00 03 ac 	l.jal 6290 <_sbrk_r>
    53e4:	e0 74 a0 04 	l.or r3,r20,r20
    53e8:	86 36 00 08 	l.lwz r17,8(r22)
    53ec:	e2 31 90 00 	l.add r17,r17,r18
    53f0:	e4 2b 88 00 	l.sfne r11,r17
    53f4:	0c 00 00 0c 	l.bnf 5424 <_malloc_trim_r+0xa8>
    53f8:	e0 80 80 02 	l.sub r4,r0,r16
    53fc:	07 ff fb fe 	l.jal 43f4 <__malloc_unlock>
    5400:	e0 74 a0 04 	l.or r3,r20,r20
    5404:	19 60 00 00 	l.movhi r11,0x0
    5408:	86 01 00 00 	l.lwz r16,0(r1)
    540c:	86 41 00 04 	l.lwz r18,4(r1)
    5410:	86 81 00 08 	l.lwz r20,8(r1)
    5414:	86 c1 00 0c 	l.lwz r22,12(r1)
    5418:	85 21 00 10 	l.lwz r9,16(r1)
    541c:	44 00 48 00 	l.jr r9
    5420:	9c 21 00 14 	l.addi r1,r1,20
    5424:	04 00 03 9b 	l.jal 6290 <_sbrk_r>
    5428:	e0 74 a0 04 	l.or r3,r20,r20
    542c:	ae 20 ff ff 	l.xori r17,r0,-1
    5430:	e4 2b 88 00 	l.sfne r11,r17
    5434:	0c 00 00 13 	l.bnf 5480 <_malloc_trim_r+0x104>
    5438:	e2 52 80 02 	l.sub r18,r18,r16
    543c:	1a 60 00 01 	l.movhi r19,0x1
    5440:	aa 52 00 01 	l.ori r18,r18,0x1
    5444:	86 33 94 bc 	l.lwz r17,-27460(r19)
    5448:	86 b6 00 08 	l.lwz r21,8(r22)
    544c:	e2 11 80 02 	l.sub r16,r17,r16
    5450:	d4 15 90 04 	l.sw 4(r21),r18
    5454:	e0 74 a0 04 	l.or r3,r20,r20
    5458:	07 ff fb e7 	l.jal 43f4 <__malloc_unlock>
    545c:	d6 53 84 bc 	l.sw -27460(r19),r16
    5460:	a9 60 00 01 	l.ori r11,r0,0x1
    5464:	86 01 00 00 	l.lwz r16,0(r1)
    5468:	86 41 00 04 	l.lwz r18,4(r1)
    546c:	86 81 00 08 	l.lwz r20,8(r1)
    5470:	86 c1 00 0c 	l.lwz r22,12(r1)
    5474:	85 21 00 10 	l.lwz r9,16(r1)
    5478:	44 00 48 00 	l.jr r9
    547c:	9c 21 00 14 	l.addi r1,r1,20
    5480:	18 80 00 00 	l.movhi r4,0x0
    5484:	04 00 03 83 	l.jal 6290 <_sbrk_r>
    5488:	e0 74 a0 04 	l.or r3,r20,r20
    548c:	aa a0 00 0f 	l.ori r21,r0,0xf
    5490:	86 76 00 08 	l.lwz r19,8(r22)
    5494:	e2 2b 98 02 	l.sub r17,r11,r19
    5498:	e5 b1 a8 00 	l.sfles r17,r21
    549c:	13 ff ff d8 	l.bf 53fc <_malloc_trim_r+0x80>
    54a0:	1a a0 00 01 	l.movhi r21,0x1
    54a4:	86 b5 90 68 	l.lwz r21,-28568(r21)
    54a8:	aa 31 00 01 	l.ori r17,r17,0x1
    54ac:	e1 6b a8 02 	l.sub r11,r11,r21
    54b0:	1a a0 00 01 	l.movhi r21,0x1
    54b4:	d6 55 5c bc 	l.sw -27460(r21),r11
    54b8:	03 ff ff d1 	l.j 53fc <_malloc_trim_r+0x80>
    54bc:	d4 13 88 04 	l.sw 4(r19),r17

000054c0 <_free_r>:
    54c0:	1a 20 00 00 	l.movhi r17,0x0
    54c4:	e4 04 88 00 	l.sfeq r4,r17
    54c8:	10 00 00 5d 	l.bf 563c <_free_r+0x17c>
    54cc:	15 00 00 00 	l.nop 0x0
    54d0:	9c 21 ff f4 	l.addi r1,r1,-12
    54d4:	d4 01 80 00 	l.sw 0(r1),r16
    54d8:	d4 01 90 04 	l.sw 4(r1),r18
    54dc:	e2 04 20 04 	l.or r16,r4,r4
    54e0:	d4 01 48 08 	l.sw 8(r1),r9
    54e4:	07 ff fb 9b 	l.jal 4350 <__malloc_lock>
    54e8:	e2 43 18 04 	l.or r18,r3,r3
    54ec:	ae 20 ff fe 	l.xori r17,r0,-2
    54f0:	1a 60 00 01 	l.movhi r19,0x1
    54f4:	86 f0 ff fc 	l.lwz r23,-4(r16)
    54f8:	9f b0 ff f8 	l.addi r29,r16,-8
    54fc:	e2 37 88 03 	l.and r17,r23,r17
    5500:	e2 bd 88 00 	l.add r21,r29,r17
    5504:	9f f3 8c 60 	l.addi r31,r19,-29600
    5508:	af 60 ff fc 	l.xori r27,r0,-4
    550c:	87 3f 00 08 	l.lwz r25,8(r31)
    5510:	e4 39 a8 00 	l.sfne r25,r21
    5514:	86 75 00 04 	l.lwz r19,4(r21)
    5518:	a6 f7 00 01 	l.andi r23,r23,0x1
    551c:	0c 00 00 84 	l.bnf 572c <_free_r+0x26c>
    5520:	e2 73 d8 03 	l.and r19,r19,r27
    5524:	19 e0 00 00 	l.movhi r15,0x0
    5528:	d4 15 98 04 	l.sw 4(r21),r19
    552c:	e4 37 78 00 	l.sfne r23,r15
    5530:	10 00 00 30 	l.bf 55f0 <_free_r+0x130>
    5534:	e3 35 98 00 	l.add r25,r21,r19
    5538:	1a e0 00 01 	l.movhi r23,0x1
    553c:	87 70 ff f8 	l.lwz r27,-8(r16)
    5540:	9e f7 8c 68 	l.addi r23,r23,-29592
    5544:	e3 bd d8 02 	l.sub r29,r29,r27
    5548:	e2 31 d8 00 	l.add r17,r17,r27
    554c:	87 7d 00 08 	l.lwz r27,8(r29)
    5550:	e4 1b b8 00 	l.sfeq r27,r23
    5554:	87 39 00 04 	l.lwz r25,4(r25)
    5558:	10 00 00 67 	l.bf 56f4 <_free_r+0x234>
    555c:	a7 39 00 01 	l.andi r25,r25,0x1
    5560:	85 bd 00 0c 	l.lwz r13,12(r29)
    5564:	d4 1b 68 0c 	l.sw 12(r27),r13
    5568:	e4 19 78 00 	l.sfeq r25,r15
    556c:	10 00 00 96 	l.bf 57c4 <_free_r+0x304>
    5570:	d4 0d d8 08 	l.sw 8(r13),r27
    5574:	aa 71 00 01 	l.ori r19,r17,0x1
    5578:	d4 1d 98 04 	l.sw 4(r29),r19
    557c:	d4 15 88 00 	l.sw 0(r21),r17
    5580:	aa 60 01 ff 	l.ori r19,r0,0x1ff
    5584:	e4 51 98 00 	l.sfgtu r17,r19
    5588:	10 00 00 36 	l.bf 5660 <_free_r+0x1a0>
    558c:	aa 60 00 09 	l.ori r19,r0,0x9
    5590:	aa e0 00 03 	l.ori r23,r0,0x3
    5594:	e2 71 b8 48 	l.srl r19,r17,r23
    5598:	9e 73 00 01 	l.addi r19,r19,1
    559c:	aa a0 00 05 	l.ori r21,r0,0x5
    55a0:	e2 b1 a8 48 	l.srl r21,r17,r21
    55a4:	e2 73 b8 08 	l.sll r19,r19,r23
    55a8:	aa 20 00 01 	l.ori r17,r0,0x1
    55ac:	e2 7f 98 00 	l.add r19,r31,r19
    55b0:	e2 31 a8 08 	l.sll r17,r17,r21
    55b4:	9e f3 ff f8 	l.addi r23,r19,-8
    55b8:	86 bf 00 04 	l.lwz r21,4(r31)
    55bc:	e2 31 a8 04 	l.or r17,r17,r21
    55c0:	86 b3 00 00 	l.lwz r21,0(r19)
    55c4:	d4 1d b8 0c 	l.sw 12(r29),r23
    55c8:	d4 1d a8 08 	l.sw 8(r29),r21
    55cc:	d4 1f 88 04 	l.sw 4(r31),r17
    55d0:	d4 13 e8 00 	l.sw 0(r19),r29
    55d4:	d4 15 e8 0c 	l.sw 12(r21),r29
    55d8:	e0 72 90 04 	l.or r3,r18,r18
    55dc:	86 01 00 00 	l.lwz r16,0(r1)
    55e0:	86 41 00 04 	l.lwz r18,4(r1)
    55e4:	85 21 00 08 	l.lwz r9,8(r1)
    55e8:	03 ff fb 83 	l.j 43f4 <__malloc_unlock>
    55ec:	9c 21 00 0c 	l.addi r1,r1,12
    55f0:	86 f9 00 04 	l.lwz r23,4(r25)
    55f4:	1b 20 00 00 	l.movhi r25,0x0
    55f8:	a6 f7 00 01 	l.andi r23,r23,0x1
    55fc:	e4 17 c8 00 	l.sfeq r23,r25
    5600:	0c 00 00 11 	l.bnf 5644 <_free_r+0x184>
    5604:	1a e0 00 01 	l.movhi r23,0x1
    5608:	e2 31 98 00 	l.add r17,r17,r19
    560c:	9e f7 8c 68 	l.addi r23,r23,-29592
    5610:	86 75 00 08 	l.lwz r19,8(r21)
    5614:	e4 33 b8 00 	l.sfne r19,r23
    5618:	ab 71 00 01 	l.ori r27,r17,0x1
    561c:	0c 00 00 70 	l.bnf 57dc <_free_r+0x31c>
    5620:	e3 3d 88 00 	l.add r25,r29,r17
    5624:	86 b5 00 0c 	l.lwz r21,12(r21)
    5628:	d4 13 a8 0c 	l.sw 12(r19),r21
    562c:	d4 15 98 08 	l.sw 8(r21),r19
    5630:	d4 1d d8 04 	l.sw 4(r29),r27
    5634:	03 ff ff d3 	l.j 5580 <_free_r+0xc0>
    5638:	d4 19 88 00 	l.sw 0(r25),r17
    563c:	44 00 48 00 	l.jr r9
    5640:	15 00 00 00 	l.nop 0x0
    5644:	aa 71 00 01 	l.ori r19,r17,0x1
    5648:	d7 f0 9f fc 	l.sw -4(r16),r19
    564c:	aa 60 01 ff 	l.ori r19,r0,0x1ff
    5650:	e4 51 98 00 	l.sfgtu r17,r19
    5654:	0f ff ff cf 	l.bnf 5590 <_free_r+0xd0>
    5658:	d4 15 88 00 	l.sw 0(r21),r17
    565c:	aa 60 00 09 	l.ori r19,r0,0x9
    5660:	e2 b1 98 48 	l.srl r21,r17,r19
    5664:	aa 60 09 ff 	l.ori r19,r0,0x9ff
    5668:	e4 51 98 00 	l.sfgtu r17,r19
    566c:	10 00 00 49 	l.bf 5790 <_free_r+0x2d0>
    5670:	aa 60 00 14 	l.ori r19,r0,0x14
    5674:	aa 60 00 06 	l.ori r19,r0,0x6
    5678:	e2 b1 98 48 	l.srl r21,r17,r19
    567c:	9e 75 00 39 	l.addi r19,r21,57
    5680:	aa e0 00 03 	l.ori r23,r0,0x3
    5684:	9e b5 00 38 	l.addi r21,r21,56
    5688:	e2 73 b8 08 	l.sll r19,r19,r23
    568c:	e2 7f 98 00 	l.add r19,r31,r19
    5690:	9e f3 ff f8 	l.addi r23,r19,-8
    5694:	86 73 00 00 	l.lwz r19,0(r19)
    5698:	e4 37 98 00 	l.sfne r23,r19
    569c:	0c 00 00 57 	l.bnf 57f8 <_free_r+0x338>
    56a0:	af 20 ff fc 	l.xori r25,r0,-4
    56a4:	86 b3 00 04 	l.lwz r21,4(r19)
    56a8:	e2 b5 c8 03 	l.and r21,r21,r25
    56ac:	e4 55 88 00 	l.sfgtu r21,r17
    56b0:	0c 00 00 06 	l.bnf 56c8 <_free_r+0x208>
    56b4:	15 00 00 00 	l.nop 0x0
    56b8:	86 73 00 08 	l.lwz r19,8(r19)
    56bc:	e4 17 98 00 	l.sfeq r23,r19
    56c0:	0f ff ff f9 	l.bnf 56a4 <_free_r+0x1e4>
    56c4:	15 00 00 00 	l.nop 0x0
    56c8:	86 f3 00 0c 	l.lwz r23,12(r19)
    56cc:	d4 1d b8 0c 	l.sw 12(r29),r23
    56d0:	d4 1d 98 08 	l.sw 8(r29),r19
    56d4:	d4 17 e8 08 	l.sw 8(r23),r29
    56d8:	d4 13 e8 0c 	l.sw 12(r19),r29
    56dc:	e0 72 90 04 	l.or r3,r18,r18
    56e0:	86 01 00 00 	l.lwz r16,0(r1)
    56e4:	86 41 00 04 	l.lwz r18,4(r1)
    56e8:	85 21 00 08 	l.lwz r9,8(r1)
    56ec:	03 ff fb 42 	l.j 43f4 <__malloc_unlock>
    56f0:	9c 21 00 0c 	l.addi r1,r1,12
    56f4:	1a e0 00 00 	l.movhi r23,0x0
    56f8:	e4 19 b8 00 	l.sfeq r25,r23
    56fc:	0c 00 00 5e 	l.bnf 5874 <_free_r+0x3b4>
    5700:	15 00 00 00 	l.nop 0x0
    5704:	86 f5 00 08 	l.lwz r23,8(r21)
    5708:	e2 33 88 00 	l.add r17,r19,r17
    570c:	86 b5 00 0c 	l.lwz r21,12(r21)
    5710:	d4 17 a8 0c 	l.sw 12(r23),r21
    5714:	d4 15 b8 08 	l.sw 8(r21),r23
    5718:	aa 71 00 01 	l.ori r19,r17,0x1
    571c:	d4 1d 98 04 	l.sw 4(r29),r19
    5720:	e3 bd 88 00 	l.add r29,r29,r17
    5724:	03 ff ff ad 	l.j 55d8 <_free_r+0x118>
    5728:	d4 1d 88 00 	l.sw 0(r29),r17
    572c:	e2 31 98 00 	l.add r17,r17,r19
    5730:	1a 60 00 00 	l.movhi r19,0x0
    5734:	e4 37 98 00 	l.sfne r23,r19
    5738:	10 00 00 0a 	l.bf 5760 <_free_r+0x2a0>
    573c:	aa 71 00 01 	l.ori r19,r17,0x1
    5740:	86 f0 ff f8 	l.lwz r23,-8(r16)
    5744:	e3 bd b8 02 	l.sub r29,r29,r23
    5748:	86 7d 00 0c 	l.lwz r19,12(r29)
    574c:	86 bd 00 08 	l.lwz r21,8(r29)
    5750:	d4 15 98 0c 	l.sw 12(r21),r19
    5754:	e2 31 b8 00 	l.add r17,r17,r23
    5758:	d4 13 a8 08 	l.sw 8(r19),r21
    575c:	aa 71 00 01 	l.ori r19,r17,0x1
    5760:	d4 1d 98 04 	l.sw 4(r29),r19
    5764:	1a 60 00 01 	l.movhi r19,0x1
    5768:	86 73 90 6c 	l.lwz r19,-28564(r19)
    576c:	e4 b3 88 00 	l.sfleu r19,r17
    5770:	0f ff ff 9a 	l.bnf 55d8 <_free_r+0x118>
    5774:	d4 1f e8 08 	l.sw 8(r31),r29
    5778:	1a 20 00 01 	l.movhi r17,0x1
    577c:	e0 72 90 04 	l.or r3,r18,r18
    5780:	07 ff fe ff 	l.jal 537c <_malloc_trim_r>
    5784:	84 91 94 b8 	l.lwz r4,-27464(r17)
    5788:	03 ff ff 95 	l.j 55dc <_free_r+0x11c>
    578c:	e0 72 90 04 	l.or r3,r18,r18
    5790:	e4 55 98 00 	l.sfgtu r21,r19
    5794:	0c 00 00 0e 	l.bnf 57cc <_free_r+0x30c>
    5798:	9e 75 00 5c 	l.addi r19,r21,92
    579c:	aa 60 00 54 	l.ori r19,r0,0x54
    57a0:	e4 55 98 00 	l.sfgtu r21,r19
    57a4:	10 00 00 1d 	l.bf 5818 <_free_r+0x358>
    57a8:	aa 60 00 0c 	l.ori r19,r0,0xc
    57ac:	e2 b1 98 48 	l.srl r21,r17,r19
    57b0:	9e 75 00 6f 	l.addi r19,r21,111
    57b4:	aa e0 00 03 	l.ori r23,r0,0x3
    57b8:	9e b5 00 6e 	l.addi r21,r21,110
    57bc:	03 ff ff b4 	l.j 568c <_free_r+0x1cc>
    57c0:	e2 73 b8 08 	l.sll r19,r19,r23
    57c4:	03 ff ff 93 	l.j 5610 <_free_r+0x150>
    57c8:	e2 31 98 00 	l.add r17,r17,r19
    57cc:	aa e0 00 03 	l.ori r23,r0,0x3
    57d0:	9e b5 00 5b 	l.addi r21,r21,91
    57d4:	03 ff ff ae 	l.j 568c <_free_r+0x1cc>
    57d8:	e2 73 b8 08 	l.sll r19,r19,r23
    57dc:	d4 1f e8 14 	l.sw 20(r31),r29
    57e0:	d4 1f e8 10 	l.sw 16(r31),r29
    57e4:	d4 1d b8 0c 	l.sw 12(r29),r23
    57e8:	d4 1d b8 08 	l.sw 8(r29),r23
    57ec:	d4 1d d8 04 	l.sw 4(r29),r27
    57f0:	03 ff ff 7a 	l.j 55d8 <_free_r+0x118>
    57f4:	d4 19 88 00 	l.sw 0(r25),r17
    57f8:	aa 20 00 02 	l.ori r17,r0,0x2
    57fc:	e2 b5 88 88 	l.sra r21,r21,r17
    5800:	aa 20 00 01 	l.ori r17,r0,0x1
    5804:	e2 b1 a8 08 	l.sll r21,r17,r21
    5808:	86 3f 00 04 	l.lwz r17,4(r31)
    580c:	e2 b5 88 04 	l.or r21,r21,r17
    5810:	03 ff ff af 	l.j 56cc <_free_r+0x20c>
    5814:	d4 1f a8 04 	l.sw 4(r31),r21
    5818:	aa 60 01 54 	l.ori r19,r0,0x154
    581c:	e4 55 98 00 	l.sfgtu r21,r19
    5820:	10 00 00 08 	l.bf 5840 <_free_r+0x380>
    5824:	aa 60 00 0f 	l.ori r19,r0,0xf
    5828:	e2 b1 98 48 	l.srl r21,r17,r19
    582c:	9e 75 00 78 	l.addi r19,r21,120
    5830:	aa e0 00 03 	l.ori r23,r0,0x3
    5834:	9e b5 00 77 	l.addi r21,r21,119
    5838:	03 ff ff 95 	l.j 568c <_free_r+0x1cc>
    583c:	e2 73 b8 08 	l.sll r19,r19,r23
    5840:	aa 60 05 54 	l.ori r19,r0,0x554
    5844:	e4 55 98 00 	l.sfgtu r21,r19
    5848:	10 00 00 08 	l.bf 5868 <_free_r+0x3a8>
    584c:	aa e0 00 03 	l.ori r23,r0,0x3
    5850:	aa 60 00 12 	l.ori r19,r0,0x12
    5854:	e2 b1 98 48 	l.srl r21,r17,r19
    5858:	9e 75 00 7d 	l.addi r19,r21,125
    585c:	9e b5 00 7c 	l.addi r21,r21,124
    5860:	03 ff ff 8b 	l.j 568c <_free_r+0x1cc>
    5864:	e2 73 b8 08 	l.sll r19,r19,r23
    5868:	aa 60 03 f8 	l.ori r19,r0,0x3f8
    586c:	03 ff ff 88 	l.j 568c <_free_r+0x1cc>
    5870:	aa a0 00 7e 	l.ori r21,r0,0x7e
    5874:	aa 71 00 01 	l.ori r19,r17,0x1
    5878:	d4 1d 98 04 	l.sw 4(r29),r19
    587c:	03 ff ff 57 	l.j 55d8 <_free_r+0x118>
    5880:	d4 15 88 00 	l.sw 0(r21),r17

00005884 <__swhatbuf_r>:
    5884:	9c 21 ff a8 	l.addi r1,r1,-88
    5888:	d4 01 80 48 	l.sw 72(r1),r16
    588c:	1a 20 00 00 	l.movhi r17,0x0
    5890:	e2 04 20 04 	l.or r16,r4,r4
    5894:	98 84 00 0e 	l.lhs r4,14(r4)
    5898:	d4 01 90 4c 	l.sw 76(r1),r18
    589c:	d4 01 a0 50 	l.sw 80(r1),r20
    58a0:	d4 01 48 54 	l.sw 84(r1),r9
    58a4:	e5 64 88 00 	l.sfges r4,r17
    58a8:	e2 45 28 04 	l.or r18,r5,r5
    58ac:	0c 00 00 18 	l.bnf 590c <__swhatbuf_r+0x88>
    58b0:	e2 86 30 04 	l.or r20,r6,r6
    58b4:	04 00 00 c5 	l.jal 5bc8 <_fstat_r>
    58b8:	e0 a1 08 04 	l.or r5,r1,r1
    58bc:	1a 20 00 00 	l.movhi r17,0x0
    58c0:	e5 8b 88 00 	l.sflts r11,r17
    58c4:	10 00 00 12 	l.bf 590c <__swhatbuf_r+0x88>
    58c8:	aa 60 20 00 	l.ori r19,r0,0x2000
    58cc:	86 21 00 04 	l.lwz r17,4(r1)
    58d0:	a6 31 f0 00 	l.andi r17,r17,0xf000
    58d4:	e4 11 98 00 	l.sfeq r17,r19
    58d8:	10 00 00 03 	l.bf 58e4 <__swhatbuf_r+0x60>
    58dc:	aa 20 00 01 	l.ori r17,r0,0x1
    58e0:	1a 20 00 00 	l.movhi r17,0x0
    58e4:	d4 14 88 00 	l.sw 0(r20),r17
    58e8:	aa 20 04 00 	l.ori r17,r0,0x400
    58ec:	d4 12 88 00 	l.sw 0(r18),r17
    58f0:	a9 60 08 00 	l.ori r11,r0,0x800
    58f4:	86 01 00 48 	l.lwz r16,72(r1)
    58f8:	86 41 00 4c 	l.lwz r18,76(r1)
    58fc:	86 81 00 50 	l.lwz r20,80(r1)
    5900:	85 21 00 54 	l.lwz r9,84(r1)
    5904:	44 00 48 00 	l.jr r9
    5908:	9c 21 00 58 	l.addi r1,r1,88
    590c:	96 30 00 0c 	l.lhz r17,12(r16)
    5910:	a6 31 00 80 	l.andi r17,r17,0x80
    5914:	1a 60 00 00 	l.movhi r19,0x0
    5918:	e4 31 98 00 	l.sfne r17,r19
    591c:	0c 00 00 0b 	l.bnf 5948 <__swhatbuf_r+0xc4>
    5920:	d4 14 00 00 	l.sw 0(r20),r0
    5924:	aa 20 00 40 	l.ori r17,r0,0x40
    5928:	d4 12 88 00 	l.sw 0(r18),r17
    592c:	19 60 00 00 	l.movhi r11,0x0
    5930:	86 01 00 48 	l.lwz r16,72(r1)
    5934:	86 41 00 4c 	l.lwz r18,76(r1)
    5938:	86 81 00 50 	l.lwz r20,80(r1)
    593c:	85 21 00 54 	l.lwz r9,84(r1)
    5940:	44 00 48 00 	l.jr r9
    5944:	9c 21 00 58 	l.addi r1,r1,88
    5948:	aa 20 04 00 	l.ori r17,r0,0x400
    594c:	d4 12 88 00 	l.sw 0(r18),r17
    5950:	19 60 00 00 	l.movhi r11,0x0
    5954:	86 01 00 48 	l.lwz r16,72(r1)
    5958:	86 41 00 4c 	l.lwz r18,76(r1)
    595c:	86 81 00 50 	l.lwz r20,80(r1)
    5960:	85 21 00 54 	l.lwz r9,84(r1)
    5964:	44 00 48 00 	l.jr r9
    5968:	9c 21 00 58 	l.addi r1,r1,88

0000596c <__smakebuf_r>:
    596c:	9c 21 ff e8 	l.addi r1,r1,-24
    5970:	96 24 00 0c 	l.lhz r17,12(r4)
    5974:	a6 31 00 02 	l.andi r17,r17,0x2
    5978:	1a 60 00 00 	l.movhi r19,0x0
    597c:	d4 01 80 08 	l.sw 8(r1),r16
    5980:	d4 01 90 0c 	l.sw 12(r1),r18
    5984:	d4 01 a0 10 	l.sw 16(r1),r20
    5988:	d4 01 48 14 	l.sw 20(r1),r9
    598c:	e4 11 98 00 	l.sfeq r17,r19
    5990:	10 00 00 0d 	l.bf 59c4 <__smakebuf_r+0x58>
    5994:	e2 04 20 04 	l.or r16,r4,r4
    5998:	9e 24 00 43 	l.addi r17,r4,67
    599c:	d4 04 88 00 	l.sw 0(r4),r17
    59a0:	d4 04 88 10 	l.sw 16(r4),r17
    59a4:	aa 20 00 01 	l.ori r17,r0,0x1
    59a8:	d4 04 88 14 	l.sw 20(r4),r17
    59ac:	86 01 00 08 	l.lwz r16,8(r1)
    59b0:	86 41 00 0c 	l.lwz r18,12(r1)
    59b4:	86 81 00 10 	l.lwz r20,16(r1)
    59b8:	85 21 00 14 	l.lwz r9,20(r1)
    59bc:	44 00 48 00 	l.jr r9
    59c0:	9c 21 00 18 	l.addi r1,r1,24
    59c4:	9c c1 00 04 	l.addi r6,r1,4
    59c8:	e0 a1 08 04 	l.or r5,r1,r1
    59cc:	07 ff ff ae 	l.jal 5884 <__swhatbuf_r>
    59d0:	e2 43 18 04 	l.or r18,r3,r3
    59d4:	e0 72 90 04 	l.or r3,r18,r18
    59d8:	e2 8b 58 04 	l.or r20,r11,r11
    59dc:	07 ff f6 a7 	l.jal 3478 <_malloc_r>
    59e0:	84 81 00 00 	l.lwz r4,0(r1)
    59e4:	1a 20 00 00 	l.movhi r17,0x0
    59e8:	e4 2b 88 00 	l.sfne r11,r17
    59ec:	0c 00 00 17 	l.bnf 5a48 <__smakebuf_r+0xdc>
    59f0:	9a 30 00 0c 	l.lhs r17,12(r16)
    59f4:	1a 60 00 00 	l.movhi r19,0x0
    59f8:	9e 73 28 b8 	l.addi r19,r19,10424
    59fc:	d4 12 98 3c 	l.sw 60(r18),r19
    5a00:	aa 31 00 80 	l.ori r17,r17,0x80
    5a04:	86 61 00 00 	l.lwz r19,0(r1)
    5a08:	1a a0 00 00 	l.movhi r21,0x0
    5a0c:	d4 10 98 14 	l.sw 20(r16),r19
    5a10:	dc 10 88 0c 	l.sh 12(r16),r17
    5a14:	86 61 00 04 	l.lwz r19,4(r1)
    5a18:	d4 10 58 00 	l.sw 0(r16),r11
    5a1c:	e4 13 a8 00 	l.sfeq r19,r21
    5a20:	0c 00 00 18 	l.bnf 5a80 <__smakebuf_r+0x114>
    5a24:	d4 10 58 10 	l.sw 16(r16),r11
    5a28:	e2 31 a0 04 	l.or r17,r17,r20
    5a2c:	dc 10 88 0c 	l.sh 12(r16),r17
    5a30:	86 41 00 0c 	l.lwz r18,12(r1)
    5a34:	86 01 00 08 	l.lwz r16,8(r1)
    5a38:	86 81 00 10 	l.lwz r20,16(r1)
    5a3c:	85 21 00 14 	l.lwz r9,20(r1)
    5a40:	44 00 48 00 	l.jr r9
    5a44:	9c 21 00 18 	l.addi r1,r1,24
    5a48:	a6 71 02 00 	l.andi r19,r17,0x200
    5a4c:	1a a0 00 00 	l.movhi r21,0x0
    5a50:	e4 33 a8 00 	l.sfne r19,r21
    5a54:	13 ff ff d6 	l.bf 59ac <__smakebuf_r+0x40>
    5a58:	ae 60 ff fc 	l.xori r19,r0,-4
    5a5c:	e2 31 98 03 	l.and r17,r17,r19
    5a60:	aa 31 00 02 	l.ori r17,r17,0x2
    5a64:	9e 70 00 43 	l.addi r19,r16,67
    5a68:	dc 10 88 0c 	l.sh 12(r16),r17
    5a6c:	aa 20 00 01 	l.ori r17,r0,0x1
    5a70:	d4 10 98 00 	l.sw 0(r16),r19
    5a74:	d4 10 98 10 	l.sw 16(r16),r19
    5a78:	03 ff ff cd 	l.j 59ac <__smakebuf_r+0x40>
    5a7c:	d4 10 88 14 	l.sw 20(r16),r17
    5a80:	98 90 00 0e 	l.lhs r4,14(r16)
    5a84:	04 00 00 5d 	l.jal 5bf8 <_isatty_r>
    5a88:	e0 72 90 04 	l.or r3,r18,r18
    5a8c:	1a 20 00 00 	l.movhi r17,0x0
    5a90:	e4 2b 88 00 	l.sfne r11,r17
    5a94:	10 00 00 04 	l.bf 5aa4 <__smakebuf_r+0x138>
    5a98:	aa a0 00 10 	l.ori r21,r0,0x10
    5a9c:	03 ff ff e3 	l.j 5a28 <__smakebuf_r+0xbc>
    5aa0:	9a 30 00 0c 	l.lhs r17,12(r16)
    5aa4:	ae 20 ff fc 	l.xori r17,r0,-4
    5aa8:	96 70 00 0c 	l.lhz r19,12(r16)
    5aac:	e2 73 88 03 	l.and r19,r19,r17
    5ab0:	aa 73 00 01 	l.ori r19,r19,0x1
    5ab4:	e2 33 a8 08 	l.sll r17,r19,r21
    5ab8:	03 ff ff dc 	l.j 5a28 <__smakebuf_r+0xbc>
    5abc:	e2 31 a8 88 	l.sra r17,r17,r21

00005ac0 <_write_r>:
    5ac0:	9c 21 ff e8 	l.addi r1,r1,-24
    5ac4:	1a 20 00 00 	l.movhi r17,0x0
    5ac8:	d4 01 b0 0c 	l.sw 12(r1),r22
    5acc:	d4 01 80 00 	l.sw 0(r1),r16
    5ad0:	d4 01 90 04 	l.sw 4(r1),r18
    5ad4:	d4 01 a0 08 	l.sw 8(r1),r20
    5ad8:	d4 01 c0 10 	l.sw 16(r1),r24
    5adc:	d4 01 48 14 	l.sw 20(r1),r9
    5ae0:	e4 26 88 00 	l.sfne r6,r17
    5ae4:	0c 00 00 18 	l.bnf 5b44 <_write_r+0x84>
    5ae8:	e2 c6 30 04 	l.or r22,r6,r6
    5aec:	e2 05 28 04 	l.or r16,r5,r5
    5af0:	e2 85 30 00 	l.add r20,r5,r6
    5af4:	aa 40 00 0a 	l.ori r18,r0,0xa
    5af8:	00 00 00 07 	l.j 5b14 <_write_r+0x54>
    5afc:	ab 00 00 0d 	l.ori r24,r0,0xd
    5b00:	04 00 00 b6 	l.jal 5dd8 <_or1k_outbyte>
    5b04:	9e 10 00 01 	l.addi r16,r16,1
    5b08:	e4 34 80 00 	l.sfne r20,r16
    5b0c:	0c 00 00 0f 	l.bnf 5b48 <_write_r+0x88>
    5b10:	e1 76 b0 04 	l.or r11,r22,r22
    5b14:	90 70 00 00 	l.lbs r3,0(r16)
    5b18:	e4 23 90 00 	l.sfne r3,r18
    5b1c:	13 ff ff f9 	l.bf 5b00 <_write_r+0x40>
    5b20:	15 00 00 00 	l.nop 0x0
    5b24:	04 00 00 ad 	l.jal 5dd8 <_or1k_outbyte>
    5b28:	e0 78 c0 04 	l.or r3,r24,r24
    5b2c:	04 00 00 ab 	l.jal 5dd8 <_or1k_outbyte>
    5b30:	90 70 00 00 	l.lbs r3,0(r16)
    5b34:	9e 10 00 01 	l.addi r16,r16,1
    5b38:	e4 34 80 00 	l.sfne r20,r16
    5b3c:	13 ff ff f6 	l.bf 5b14 <_write_r+0x54>
    5b40:	15 00 00 00 	l.nop 0x0
    5b44:	e1 76 b0 04 	l.or r11,r22,r22
    5b48:	86 01 00 00 	l.lwz r16,0(r1)
    5b4c:	86 41 00 04 	l.lwz r18,4(r1)
    5b50:	86 81 00 08 	l.lwz r20,8(r1)
    5b54:	86 c1 00 0c 	l.lwz r22,12(r1)
    5b58:	87 01 00 10 	l.lwz r24,16(r1)
    5b5c:	85 21 00 14 	l.lwz r9,20(r1)
    5b60:	44 00 48 00 	l.jr r9
    5b64:	9c 21 00 18 	l.addi r1,r1,24

00005b68 <_exit>:
    5b68:	9c 21 ff fc 	l.addi r1,r1,-4
    5b6c:	d4 01 48 00 	l.sw 0(r1),r9
    5b70:	07 ff f1 c3 	l.jal 227c <_or1k_board_exit>
    5b74:	15 00 00 00 	l.nop 0x0
    5b78:	00 00 00 00 	l.j 5b78 <_exit+0x10>
    5b7c:	15 00 00 00 	l.nop 0x0

00005b80 <_close_r>:
    5b80:	aa 20 00 58 	l.ori r17,r0,0x58
    5b84:	d4 03 88 00 	l.sw 0(r3),r17
    5b88:	44 00 48 00 	l.jr r9
    5b8c:	ad 60 ff ff 	l.xori r11,r0,-1

00005b90 <_execve_r>:
    5b90:	aa 20 00 58 	l.ori r17,r0,0x58
    5b94:	d4 03 88 00 	l.sw 0(r3),r17
    5b98:	44 00 48 00 	l.jr r9
    5b9c:	ad 60 ff ff 	l.xori r11,r0,-1

00005ba0 <_fork_r>:
    5ba0:	9c 21 ff fc 	l.addi r1,r1,-4
    5ba4:	d4 01 48 00 	l.sw 0(r1),r9
    5ba8:	04 00 03 11 	l.jal 67ec <__errno>
    5bac:	15 00 00 00 	l.nop 0x0
    5bb0:	aa 20 00 58 	l.ori r17,r0,0x58
    5bb4:	d4 0b 88 00 	l.sw 0(r11),r17
    5bb8:	85 21 00 00 	l.lwz r9,0(r1)
    5bbc:	ad 60 ff ff 	l.xori r11,r0,-1
    5bc0:	44 00 48 00 	l.jr r9
    5bc4:	9c 21 00 04 	l.addi r1,r1,4

00005bc8 <_fstat_r>:
    5bc8:	aa 20 00 58 	l.ori r17,r0,0x58
    5bcc:	d4 03 88 00 	l.sw 0(r3),r17
    5bd0:	44 00 48 00 	l.jr r9
    5bd4:	ad 60 ff ff 	l.xori r11,r0,-1

00005bd8 <_getpid_r>:
    5bd8:	aa 20 00 58 	l.ori r17,r0,0x58
    5bdc:	d4 03 88 00 	l.sw 0(r3),r17
    5be0:	44 00 48 00 	l.jr r9
    5be4:	ad 60 ff ff 	l.xori r11,r0,-1

00005be8 <_gettimeofday>:
    5be8:	aa 20 00 58 	l.ori r17,r0,0x58
    5bec:	d4 03 88 00 	l.sw 0(r3),r17
    5bf0:	44 00 48 00 	l.jr r9
    5bf4:	ad 60 ff ff 	l.xori r11,r0,-1

00005bf8 <_isatty_r>:
    5bf8:	aa 20 00 58 	l.ori r17,r0,0x58
    5bfc:	d4 03 88 00 	l.sw 0(r3),r17
    5c00:	44 00 48 00 	l.jr r9
    5c04:	19 60 00 00 	l.movhi r11,0x0

00005c08 <_kill_r>:
    5c08:	aa 20 00 58 	l.ori r17,r0,0x58
    5c0c:	d4 03 88 00 	l.sw 0(r3),r17
    5c10:	44 00 48 00 	l.jr r9
    5c14:	ad 60 ff ff 	l.xori r11,r0,-1

00005c18 <_link_r>:
    5c18:	aa 20 00 58 	l.ori r17,r0,0x58
    5c1c:	d4 03 88 00 	l.sw 0(r3),r17
    5c20:	44 00 48 00 	l.jr r9
    5c24:	ad 60 ff ff 	l.xori r11,r0,-1

00005c28 <_lseek_r>:
    5c28:	9c 21 ff fc 	l.addi r1,r1,-4
    5c2c:	d4 01 48 00 	l.sw 0(r1),r9
    5c30:	04 00 02 ef 	l.jal 67ec <__errno>
    5c34:	15 00 00 00 	l.nop 0x0
    5c38:	aa 20 00 58 	l.ori r17,r0,0x58
    5c3c:	d4 0b 88 00 	l.sw 0(r11),r17
    5c40:	85 21 00 00 	l.lwz r9,0(r1)
    5c44:	ad 60 ff ff 	l.xori r11,r0,-1
    5c48:	44 00 48 00 	l.jr r9
    5c4c:	9c 21 00 04 	l.addi r1,r1,4

00005c50 <_open_r>:
    5c50:	aa 20 00 58 	l.ori r17,r0,0x58
    5c54:	d4 03 88 00 	l.sw 0(r3),r17
    5c58:	44 00 48 00 	l.jr r9
    5c5c:	ad 60 ff ff 	l.xori r11,r0,-1

00005c60 <_read_r>:
    5c60:	aa 20 00 58 	l.ori r17,r0,0x58
    5c64:	d4 03 88 00 	l.sw 0(r3),r17
    5c68:	44 00 48 00 	l.jr r9
    5c6c:	ad 60 ff ff 	l.xori r11,r0,-1

00005c70 <_readlink_r>:
    5c70:	aa 20 00 58 	l.ori r17,r0,0x58
    5c74:	d4 03 88 00 	l.sw 0(r3),r17
    5c78:	44 00 48 00 	l.jr r9
    5c7c:	ad 60 ff ff 	l.xori r11,r0,-1

00005c80 <_stat_r>:
    5c80:	aa 20 00 05 	l.ori r17,r0,0x5
    5c84:	d4 03 88 00 	l.sw 0(r3),r17
    5c88:	44 00 48 00 	l.jr r9
    5c8c:	ad 60 ff ff 	l.xori r11,r0,-1

00005c90 <_unlink_r>:
    5c90:	aa 20 00 05 	l.ori r17,r0,0x5
    5c94:	d4 03 88 00 	l.sw 0(r3),r17
    5c98:	44 00 48 00 	l.jr r9
    5c9c:	ad 60 ff ff 	l.xori r11,r0,-1

00005ca0 <_or1k_uart_interrupt_handler>:
    5ca0:	1a 20 00 00 	l.movhi r17,0x0
    5ca4:	86 31 22 70 	l.lwz r17,8816(r17)
    5ca8:	8e 31 00 02 	l.lbz r17,2(r17)
    5cac:	44 00 48 00 	l.jr r9
    5cb0:	15 00 00 00 	l.nop 0x0

00005cb4 <_or1k_uart_init>:
    5cb4:	1a 60 00 00 	l.movhi r19,0x0
    5cb8:	1a 20 00 00 	l.movhi r17,0x0
    5cbc:	86 f3 22 70 	l.lwz r23,8816(r19)
    5cc0:	e4 17 88 00 	l.sfeq r23,r17
    5cc4:	10 00 00 1f 	l.bf 5d40 <_or1k_uart_init+0x8c>
    5cc8:	1a 20 00 00 	l.movhi r17,0x0
    5ccc:	86 31 22 74 	l.lwz r17,8820(r17)
    5cd0:	aa a0 00 04 	l.ori r21,r0,0x4
    5cd4:	e2 b1 a8 08 	l.sll r21,r17,r21
    5cd8:	1b 20 00 01 	l.movhi r25,0x1
    5cdc:	1a 20 00 00 	l.movhi r17,0x0
    5ce0:	d6 59 04 f8 	l.sw -27400(r25),r0
    5ce4:	86 31 22 6c 	l.lwz r17,8812(r17)
    5ce8:	e2 31 ab 0a 	l.divu r17,r17,r21
    5cec:	ae a0 ff 80 	l.xori r21,r0,-128
    5cf0:	d8 17 a8 03 	l.sb 3(r23),r21
    5cf4:	a6 f1 00 ff 	l.andi r23,r17,0xff
    5cf8:	86 b3 22 70 	l.lwz r21,8816(r19)
    5cfc:	ab 20 00 08 	l.ori r25,r0,0x8
    5d00:	d8 15 b8 00 	l.sb 0(r21),r23
    5d04:	a6 31 ff ff 	l.andi r17,r17,0xffff
    5d08:	86 b3 22 70 	l.lwz r21,8816(r19)
    5d0c:	e2 31 c8 48 	l.srl r17,r17,r25
    5d10:	d8 15 88 01 	l.sb 1(r21),r17
    5d14:	aa a0 00 03 	l.ori r21,r0,0x3
    5d18:	86 33 22 70 	l.lwz r17,8816(r19)
    5d1c:	d8 11 a8 03 	l.sb 3(r17),r21
    5d20:	ae a0 ff c3 	l.xori r21,r0,-61
    5d24:	86 33 22 70 	l.lwz r17,8816(r19)
    5d28:	d8 11 a8 02 	l.sb 2(r17),r21
    5d2c:	86 33 22 70 	l.lwz r17,8816(r19)
    5d30:	19 60 00 00 	l.movhi r11,0x0
    5d34:	d8 11 00 01 	l.sb 1(r17),r0
    5d38:	44 00 48 00 	l.jr r9
    5d3c:	15 00 00 00 	l.nop 0x0
    5d40:	44 00 48 00 	l.jr r9
    5d44:	ad 60 ff ff 	l.xori r11,r0,-1

00005d48 <_or1k_uart_write>:
    5d48:	aa 60 00 18 	l.ori r19,r0,0x18
    5d4c:	e0 63 98 08 	l.sll r3,r3,r19
    5d50:	1a 20 00 00 	l.movhi r17,0x0
    5d54:	e0 63 98 88 	l.sra r3,r3,r19
    5d58:	86 b1 22 70 	l.lwz r21,8816(r17)
    5d5c:	9e 75 00 05 	l.addi r19,r21,5
    5d60:	8e 33 00 00 	l.lbz r17,0(r19)
    5d64:	a6 31 00 20 	l.andi r17,r17,0x20
    5d68:	1a e0 00 00 	l.movhi r23,0x0
    5d6c:	e4 11 b8 00 	l.sfeq r17,r23
    5d70:	13 ff ff fc 	l.bf 5d60 <_or1k_uart_write+0x18>
    5d74:	15 00 00 00 	l.nop 0x0
    5d78:	a4 63 00 ff 	l.andi r3,r3,0xff
    5d7c:	d8 15 18 00 	l.sb 0(r21),r3
    5d80:	44 00 48 00 	l.jr r9
    5d84:	15 00 00 00 	l.nop 0x0

00005d88 <or1k_uart_set_read_cb>:
    5d88:	9c 21 ff f8 	l.addi r1,r1,-8
    5d8c:	1a 20 00 01 	l.movhi r17,0x1
    5d90:	d4 01 80 00 	l.sw 0(r1),r16
    5d94:	d4 01 48 04 	l.sw 4(r1),r9
    5d98:	d6 51 1c f8 	l.sw -27400(r17),r3
    5d9c:	aa 60 00 01 	l.ori r19,r0,0x1
    5da0:	1a 20 00 00 	l.movhi r17,0x0
    5da4:	18 80 00 00 	l.movhi r4,0x0
    5da8:	1a 00 00 00 	l.movhi r16,0x0
    5dac:	86 31 22 70 	l.lwz r17,8816(r17)
    5db0:	18 a0 00 00 	l.movhi r5,0x0
    5db4:	d8 11 98 01 	l.sb 1(r17),r19
    5db8:	9c 84 5c a0 	l.addi r4,r4,23712
    5dbc:	04 00 00 dd 	l.jal 6130 <or1k_interrupt_handler_add>
    5dc0:	84 70 22 78 	l.lwz r3,8824(r16)
    5dc4:	84 70 22 78 	l.lwz r3,8824(r16)
    5dc8:	85 21 00 04 	l.lwz r9,4(r1)
    5dcc:	86 01 00 00 	l.lwz r16,0(r1)
    5dd0:	00 00 01 1b 	l.j 623c <or1k_interrupt_enable>
    5dd4:	9c 21 00 08 	l.addi r1,r1,8

00005dd8 <_or1k_outbyte>:
    5dd8:	18 80 00 00 	l.movhi r4,0x0
    5ddc:	a8 84 22 70 	l.ori r4,r4,0x2270
    5de0:	84 84 00 00 	l.lwz r4,0(r4)
    5de4:	e4 04 00 00 	l.sfeq r4,r0
    5de8:	10 00 00 04 	l.bf 5df8 <_or1k_outbyte+0x20>
    5dec:	15 00 00 00 	l.nop 0x0
    5df0:	03 ff ff d6 	l.j 5d48 <_or1k_uart_write>
    5df4:	15 00 00 00 	l.nop 0x0
    5df8:	44 00 48 00 	l.jr r9
    5dfc:	15 00 00 04 	l.nop 0x4

00005e00 <_or1k_cache_init>:
    5e00:	b4 60 00 01 	l.mfspr r3,r0,0x1
    5e04:	a4 83 00 04 	l.andi r4,r3,0x4
    5e08:	e4 04 00 00 	l.sfeq r4,r0
    5e0c:	10 00 00 21 	l.bf 5e90 <_or1k_cache_init+0x90>
    5e10:	15 00 00 00 	l.nop 0x0
    5e14:	b4 c0 00 11 	l.mfspr r6,r0,0x11
    5e18:	9c a0 ff ff 	l.addi r5,r0,-1
    5e1c:	ac a5 00 10 	l.xori r5,r5,16
    5e20:	e0 a6 28 03 	l.and r5,r6,r5
    5e24:	c0 00 28 11 	l.mtspr r0,r5,0x11
    5e28:	b4 60 00 06 	l.mfspr r3,r0,0x6
    5e2c:	a4 83 00 80 	l.andi r4,r3,0x80
    5e30:	b8 e4 00 47 	l.srli r7,r4,0x7
    5e34:	a9 00 00 10 	l.ori r8,r0,0x10
    5e38:	e1 c8 38 08 	l.sll r14,r8,r7
    5e3c:	a4 83 00 78 	l.andi r4,r3,0x78
    5e40:	b8 e4 00 43 	l.srli r7,r4,0x3
    5e44:	a9 00 00 01 	l.ori r8,r0,0x1
    5e48:	e1 a8 38 08 	l.sll r13,r8,r7
    5e4c:	9c c0 00 00 	l.addi r6,r0,0
    5e50:	e0 ae 38 08 	l.sll r5,r14,r7
    5e54:	c0 80 30 02 	l.mtspr r0,r6,0x2002
    5e58:	e4 26 28 00 	l.sfne r6,r5
    5e5c:	13 ff ff fe 	l.bf 5e54 <_or1k_cache_init+0x54>
    5e60:	e0 c6 70 00 	l.add r6,r6,r14
    5e64:	b4 c0 00 11 	l.mfspr r6,r0,0x11
    5e68:	a8 c6 00 10 	l.ori r6,r6,0x10
    5e6c:	c0 00 30 11 	l.mtspr r0,r6,0x11
    5e70:	15 00 00 00 	l.nop 0x0
    5e74:	15 00 00 00 	l.nop 0x0
    5e78:	15 00 00 00 	l.nop 0x0
    5e7c:	15 00 00 00 	l.nop 0x0
    5e80:	15 00 00 00 	l.nop 0x0
    5e84:	15 00 00 00 	l.nop 0x0
    5e88:	15 00 00 00 	l.nop 0x0
    5e8c:	15 00 00 00 	l.nop 0x0
    5e90:	b4 60 00 01 	l.mfspr r3,r0,0x1
    5e94:	a4 83 00 02 	l.andi r4,r3,0x2
    5e98:	e4 04 00 00 	l.sfeq r4,r0
    5e9c:	10 00 00 19 	l.bf 5f00 <_or1k_cache_init+0x100>
    5ea0:	15 00 00 00 	l.nop 0x0
    5ea4:	b4 c0 00 11 	l.mfspr r6,r0,0x11
    5ea8:	9c a0 ff ff 	l.addi r5,r0,-1
    5eac:	ac a5 00 08 	l.xori r5,r5,8
    5eb0:	e0 a6 28 03 	l.and r5,r6,r5
    5eb4:	c0 00 28 11 	l.mtspr r0,r5,0x11
    5eb8:	b4 60 00 05 	l.mfspr r3,r0,0x5
    5ebc:	a4 83 00 80 	l.andi r4,r3,0x80
    5ec0:	b8 e4 00 47 	l.srli r7,r4,0x7
    5ec4:	a9 00 00 10 	l.ori r8,r0,0x10
    5ec8:	e1 c8 38 08 	l.sll r14,r8,r7
    5ecc:	a4 83 00 78 	l.andi r4,r3,0x78
    5ed0:	b8 e4 00 43 	l.srli r7,r4,0x3
    5ed4:	a9 00 00 01 	l.ori r8,r0,0x1
    5ed8:	e1 a8 38 08 	l.sll r13,r8,r7
    5edc:	9c c0 00 00 	l.addi r6,r0,0
    5ee0:	e0 ae 38 08 	l.sll r5,r14,r7
    5ee4:	c0 60 30 03 	l.mtspr r0,r6,0x1803
    5ee8:	e4 26 28 00 	l.sfne r6,r5
    5eec:	13 ff ff fe 	l.bf 5ee4 <_or1k_cache_init+0xe4>
    5ef0:	e0 c6 70 00 	l.add r6,r6,r14
    5ef4:	b4 c0 00 11 	l.mfspr r6,r0,0x11
    5ef8:	a8 c6 00 08 	l.ori r6,r6,0x8
    5efc:	c0 00 30 11 	l.mtspr r0,r6,0x11
    5f00:	44 00 48 00 	l.jr r9
    5f04:	15 00 00 00 	l.nop 0x0

00005f08 <or1k_icache_enable>:
    5f08:	b5 a0 00 11 	l.mfspr r13,r0,0x11
    5f0c:	a9 ad 00 10 	l.ori r13,r13,0x10
    5f10:	c0 00 68 11 	l.mtspr r0,r13,0x11
    5f14:	15 00 00 00 	l.nop 0x0
    5f18:	15 00 00 00 	l.nop 0x0
    5f1c:	15 00 00 00 	l.nop 0x0
    5f20:	15 00 00 00 	l.nop 0x0
    5f24:	15 00 00 00 	l.nop 0x0
    5f28:	44 00 48 00 	l.jr r9
    5f2c:	15 00 00 00 	l.nop 0x0

00005f30 <or1k_icache_disable>:
    5f30:	b5 a0 00 11 	l.mfspr r13,r0,0x11
    5f34:	9d 80 ff ff 	l.addi r12,r0,-1
    5f38:	ad 8c 00 10 	l.xori r12,r12,16
    5f3c:	e1 8d 60 03 	l.and r12,r13,r12
    5f40:	c0 00 60 11 	l.mtspr r0,r12,0x11
    5f44:	44 00 48 00 	l.jr r9
    5f48:	15 00 00 00 	l.nop 0x0

00005f4c <or1k_icache_flush>:
    5f4c:	44 00 48 00 	l.jr r9
    5f50:	c0 80 18 02 	l.mtspr r0,r3,0x2002

00005f54 <or1k_dcache_enable>:
    5f54:	b5 a0 00 11 	l.mfspr r13,r0,0x11
    5f58:	a9 ad 00 08 	l.ori r13,r13,0x8
    5f5c:	c0 00 68 11 	l.mtspr r0,r13,0x11
    5f60:	15 00 00 00 	l.nop 0x0
    5f64:	15 00 00 00 	l.nop 0x0
    5f68:	15 00 00 00 	l.nop 0x0
    5f6c:	15 00 00 00 	l.nop 0x0
    5f70:	15 00 00 00 	l.nop 0x0
    5f74:	44 00 48 00 	l.jr r9
    5f78:	15 00 00 00 	l.nop 0x0

00005f7c <or1k_dcache_disable>:
    5f7c:	b5 a0 00 11 	l.mfspr r13,r0,0x11
    5f80:	9d 80 ff ff 	l.addi r12,r0,-1
    5f84:	ad 8c 00 08 	l.xori r12,r12,8
    5f88:	e1 8d 60 03 	l.and r12,r13,r12
    5f8c:	c0 00 60 11 	l.mtspr r0,r12,0x11
    5f90:	44 00 48 00 	l.jr r9
    5f94:	15 00 00 00 	l.nop 0x0

00005f98 <or1k_dcache_flush>:
    5f98:	44 00 48 00 	l.jr r9
    5f9c:	c0 60 18 03 	l.mtspr r0,r3,0x1803

00005fa0 <_or1k_exception_handler>:
    5fa0:	d4 01 10 08 	l.sw 8(r1),r2
    5fa4:	d4 01 28 14 	l.sw 20(r1),r5
    5fa8:	d4 01 30 18 	l.sw 24(r1),r6
    5fac:	d4 01 38 1c 	l.sw 28(r1),r7
    5fb0:	d4 01 40 20 	l.sw 32(r1),r8
    5fb4:	d4 01 48 24 	l.sw 36(r1),r9
    5fb8:	d4 01 50 28 	l.sw 40(r1),r10
    5fbc:	d4 01 58 2c 	l.sw 44(r1),r11
    5fc0:	d4 01 60 30 	l.sw 48(r1),r12
    5fc4:	d4 01 68 34 	l.sw 52(r1),r13
    5fc8:	d4 01 70 38 	l.sw 56(r1),r14
    5fcc:	d4 01 78 3c 	l.sw 60(r1),r15
    5fd0:	d4 01 80 40 	l.sw 64(r1),r16
    5fd4:	d4 01 88 44 	l.sw 68(r1),r17
    5fd8:	d4 01 90 48 	l.sw 72(r1),r18
    5fdc:	d4 01 98 4c 	l.sw 76(r1),r19
    5fe0:	d4 01 a0 50 	l.sw 80(r1),r20
    5fe4:	d4 01 a8 54 	l.sw 84(r1),r21
    5fe8:	d4 01 b0 58 	l.sw 88(r1),r22
    5fec:	d4 01 b8 5c 	l.sw 92(r1),r23
    5ff0:	d4 01 c0 60 	l.sw 96(r1),r24
    5ff4:	d4 01 c8 64 	l.sw 100(r1),r25
    5ff8:	d4 01 d0 68 	l.sw 104(r1),r26
    5ffc:	d4 01 d8 6c 	l.sw 108(r1),r27
    6000:	d4 01 e0 70 	l.sw 112(r1),r28
    6004:	d4 01 e8 74 	l.sw 116(r1),r29
    6008:	d4 01 f0 78 	l.sw 120(r1),r30
    600c:	d4 01 f8 7c 	l.sw 124(r1),r31
    6010:	b5 c0 00 20 	l.mfspr r14,r0,0x20
    6014:	d4 01 70 80 	l.sw 128(r1),r14
    6018:	b5 c0 00 40 	l.mfspr r14,r0,0x40
    601c:	d4 01 70 84 	l.sw 132(r1),r14
    6020:	1a 80 00 00 	l.movhi r20,0x0
    6024:	aa 94 90 74 	l.ori r20,r20,0x9074
    6028:	86 94 00 00 	l.lwz r20,0(r20)
    602c:	1a a0 00 00 	l.movhi r21,0x0
    6030:	aa b5 96 0c 	l.ori r21,r21,0x960c
    6034:	d4 15 a0 00 	l.sw 0(r21),r20
    6038:	a5 a3 ff 00 	l.andi r13,r3,0xff00
    603c:	b9 ad 00 46 	l.srli r13,r13,0x6
    6040:	9d ad ff f8 	l.addi r13,r13,-8
    6044:	19 c0 00 00 	l.movhi r14,0x0
    6048:	a9 ce 96 28 	l.ori r14,r14,0x9628
    604c:	e1 ce 68 00 	l.add r14,r14,r13
    6050:	85 ae 00 00 	l.lwz r13,0(r14)
    6054:	e4 2d 00 00 	l.sfne r13,r0
    6058:	0c 00 00 34 	l.bnf 6128 <exception_exit>
    605c:	15 00 00 00 	l.nop 0x0
    6060:	48 00 68 00 	l.jalr r13
    6064:	e0 64 20 04 	l.or r3,r4,r4
    6068:	1a 80 00 00 	l.movhi r20,0x0
    606c:	aa 94 96 10 	l.ori r20,r20,0x9610
    6070:	86 94 00 00 	l.lwz r20,0(r20)
    6074:	1a a0 00 00 	l.movhi r21,0x0
    6078:	aa b5 96 0c 	l.ori r21,r21,0x960c
    607c:	d4 15 a0 00 	l.sw 0(r21),r20
    6080:	18 40 00 00 	l.movhi r2,0x0
    6084:	a8 42 96 14 	l.ori r2,r2,0x9614
    6088:	84 62 00 00 	l.lwz r3,0(r2)
    608c:	9c 63 ff ff 	l.addi r3,r3,-1
    6090:	d4 02 18 00 	l.sw 0(r2),r3
    6094:	84 41 00 80 	l.lwz r2,128(r1)
    6098:	c0 00 10 20 	l.mtspr r0,r2,0x20
    609c:	84 41 00 84 	l.lwz r2,132(r1)
    60a0:	c0 00 10 40 	l.mtspr r0,r2,0x40
    60a4:	84 41 00 08 	l.lwz r2,8(r1)
    60a8:	84 61 00 0c 	l.lwz r3,12(r1)
    60ac:	84 81 00 10 	l.lwz r4,16(r1)
    60b0:	84 a1 00 14 	l.lwz r5,20(r1)
    60b4:	84 c1 00 18 	l.lwz r6,24(r1)
    60b8:	84 e1 00 1c 	l.lwz r7,28(r1)
    60bc:	85 01 00 20 	l.lwz r8,32(r1)
    60c0:	85 21 00 24 	l.lwz r9,36(r1)
    60c4:	85 41 00 28 	l.lwz r10,40(r1)
    60c8:	85 61 00 2c 	l.lwz r11,44(r1)
    60cc:	85 81 00 30 	l.lwz r12,48(r1)
    60d0:	85 a1 00 34 	l.lwz r13,52(r1)
    60d4:	85 c1 00 38 	l.lwz r14,56(r1)
    60d8:	85 e1 00 3c 	l.lwz r15,60(r1)
    60dc:	86 01 00 40 	l.lwz r16,64(r1)
    60e0:	86 21 00 44 	l.lwz r17,68(r1)
    60e4:	86 41 00 48 	l.lwz r18,72(r1)
    60e8:	86 61 00 4c 	l.lwz r19,76(r1)
    60ec:	86 81 00 50 	l.lwz r20,80(r1)
    60f0:	86 a1 00 54 	l.lwz r21,84(r1)
    60f4:	86 c1 00 58 	l.lwz r22,88(r1)
    60f8:	86 e1 00 5c 	l.lwz r23,92(r1)
    60fc:	87 01 00 60 	l.lwz r24,96(r1)
    6100:	87 21 00 64 	l.lwz r25,100(r1)
    6104:	87 41 00 68 	l.lwz r26,104(r1)
    6108:	87 61 00 6c 	l.lwz r27,108(r1)
    610c:	87 81 00 70 	l.lwz r28,112(r1)
    6110:	87 a1 00 74 	l.lwz r29,116(r1)
    6114:	87 c1 00 78 	l.lwz r30,120(r1)
    6118:	87 e1 00 7c 	l.lwz r31,124(r1)
    611c:	84 21 00 04 	l.lwz r1,4(r1)
    6120:	24 00 00 00 	l.rfe
    6124:	15 00 00 00 	l.nop 0x0

00006128 <exception_exit>:
    6128:	07 ff f0 71 	l.jal 22ec <exit>
    612c:	e0 64 20 04 	l.or r3,r4,r4

00006130 <or1k_interrupt_handler_add>:
    6130:	aa 20 00 02 	l.ori r17,r0,0x2
    6134:	e2 63 88 08 	l.sll r19,r3,r17
    6138:	1a 20 00 01 	l.movhi r17,0x1
    613c:	18 60 00 01 	l.movhi r3,0x1
    6140:	9e 31 94 fc 	l.addi r17,r17,-27396
    6144:	9c 63 95 7c 	l.addi r3,r3,-27268
    6148:	e2 31 98 00 	l.add r17,r17,r19
    614c:	e0 63 98 00 	l.add r3,r3,r19
    6150:	d4 11 20 00 	l.sw 0(r17),r4
    6154:	44 00 48 00 	l.jr r9
    6158:	d4 03 28 00 	l.sw 0(r3),r5

0000615c <or1k_interrupts_enable>:
    615c:	aa 60 00 11 	l.ori r19,r0,0x11
    6160:	b6 33 00 00 	l.mfspr r17,r19,0x0
    6164:	aa 31 00 04 	l.ori r17,r17,0x4
    6168:	c0 13 88 00 	l.mtspr r19,r17,0x0
    616c:	44 00 48 00 	l.jr r9
    6170:	15 00 00 00 	l.nop 0x0

00006174 <or1k_interrupts_disable>:
    6174:	aa 60 00 11 	l.ori r19,r0,0x11
    6178:	b5 73 00 00 	l.mfspr r11,r19,0x0
    617c:	ae 20 ff fb 	l.xori r17,r0,-5
    6180:	e2 2b 88 03 	l.and r17,r11,r17
    6184:	c0 13 88 00 	l.mtspr r19,r17,0x0
    6188:	aa 20 00 02 	l.ori r17,r0,0x2
    618c:	e1 6b 88 48 	l.srl r11,r11,r17
    6190:	44 00 48 00 	l.jr r9
    6194:	a5 6b 00 01 	l.andi r11,r11,0x1

00006198 <or1k_interrupts_restore>:
    6198:	aa 20 00 11 	l.ori r17,r0,0x11
    619c:	b6 31 00 00 	l.mfspr r17,r17,0x0
    61a0:	ae 60 ff fb 	l.xori r19,r0,-5
    61a4:	e2 31 98 03 	l.and r17,r17,r19
    61a8:	1a 60 00 00 	l.movhi r19,0x0
    61ac:	e4 03 98 00 	l.sfeq r3,r19
    61b0:	10 00 00 03 	l.bf 61bc <or1k_interrupts_restore+0x24>
    61b4:	aa 60 00 11 	l.ori r19,r0,0x11
    61b8:	aa 31 00 04 	l.ori r17,r17,0x4
    61bc:	c0 13 88 00 	l.mtspr r19,r17,0x0
    61c0:	44 00 48 00 	l.jr r9
    61c4:	15 00 00 00 	l.nop 0x0

000061c8 <_or1k_interrupt_handler>:
    61c8:	9c 21 ff fc 	l.addi r1,r1,-4
    61cc:	d4 01 48 00 	l.sw 0(r1),r9
    61d0:	b6 80 48 02 	l.mfspr r20,r0,0x4802
    61d4:	1a 00 00 00 	l.movhi r16,0x0
    61d8:	aa 10 94 fc 	l.ori r16,r16,0x94fc
    61dc:	1a 40 00 00 	l.movhi r18,0x0
    61e0:	aa 52 95 7c 	l.ori r18,r18,0x957c
    61e4:	e0 94 00 0f 	l.ff1 r4,r20
    61e8:	e4 24 00 00 	l.sfne r4,r0
    61ec:	0c 00 00 10 	l.bnf 622c <_or1k_interrupt_handler+0x64>
    61f0:	15 00 00 00 	l.nop 0x0
    61f4:	9e c4 ff ff 	l.addi r22,r4,-1
    61f8:	b8 d6 00 02 	l.slli r6,r22,0x2
    61fc:	e1 c6 80 00 	l.add r14,r6,r16
    6200:	e1 a6 90 00 	l.add r13,r6,r18
    6204:	85 ce 00 00 	l.lwz r14,0(r14)
    6208:	e4 2e 00 00 	l.sfne r14,r0
    620c:	0c 00 00 04 	l.bnf 621c <_or1k_interrupt_handler+0x54>
    6210:	15 00 00 00 	l.nop 0x0
    6214:	48 00 70 00 	l.jalr r14
    6218:	84 6d 00 00 	l.lwz r3,0(r13)
    621c:	a8 c0 00 01 	l.ori r6,r0,0x1
    6220:	e0 c6 b0 08 	l.sll r6,r6,r22
    6224:	03 ff ff f0 	l.j 61e4 <_or1k_interrupt_handler+0x1c>
    6228:	e2 94 30 05 	l.xor r20,r20,r6
    622c:	85 21 00 00 	l.lwz r9,0(r1)
    6230:	c1 20 a0 02 	l.mtspr r0,r20,0x4802
    6234:	44 00 48 00 	l.jr r9
    6238:	9c 21 00 04 	l.addi r1,r1,4

0000623c <or1k_interrupt_enable>:
    623c:	9c 21 ff fc 	l.addi r1,r1,-4
    6240:	d4 01 20 00 	l.sw 0(r1),r4
    6244:	a8 80 00 01 	l.ori r4,r0,0x1
    6248:	e0 84 18 08 	l.sll r4,r4,r3
    624c:	b4 60 48 00 	l.mfspr r3,r0,0x4800
    6250:	e0 63 20 04 	l.or r3,r3,r4
    6254:	c1 20 18 00 	l.mtspr r0,r3,0x4800
    6258:	84 81 00 00 	l.lwz r4,0(r1)
    625c:	44 00 48 00 	l.jr r9
    6260:	9c 21 00 04 	l.addi r1,r1,4

00006264 <or1k_interrupt_disable>:
    6264:	9c 21 ff fc 	l.addi r1,r1,-4
    6268:	d4 01 20 00 	l.sw 0(r1),r4
    626c:	a8 80 00 01 	l.ori r4,r0,0x1
    6270:	e0 84 18 08 	l.sll r4,r4,r3
    6274:	ac 84 ff ff 	l.xori r4,r4,-1
    6278:	b4 60 48 00 	l.mfspr r3,r0,0x4800
    627c:	e0 63 20 03 	l.and r3,r3,r4
    6280:	c1 20 18 00 	l.mtspr r0,r3,0x4800
    6284:	84 81 00 00 	l.lwz r4,0(r1)
    6288:	44 00 48 00 	l.jr r9
    628c:	9c 21 00 04 	l.addi r1,r1,4

00006290 <_sbrk_r>:
    6290:	9c 21 ff e4 	l.addi r1,r1,-28
    6294:	d4 01 90 08 	l.sw 8(r1),r18
    6298:	d4 01 a0 0c 	l.sw 12(r1),r20
    629c:	d4 01 b0 10 	l.sw 16(r1),r22
    62a0:	e2 84 20 04 	l.or r20,r4,r4
    62a4:	d4 01 c0 14 	l.sw 20(r1),r24
    62a8:	d4 01 48 18 	l.sw 24(r1),r9
    62ac:	d4 01 80 04 	l.sw 4(r1),r16
    62b0:	07 ff ff b1 	l.jal 6174 <or1k_interrupts_disable>
    62b4:	1a 40 00 01 	l.movhi r18,0x1
    62b8:	e2 cb 58 04 	l.or r22,r11,r11
    62bc:	04 00 01 1c 	l.jal 672c <or1k_timer_disable>
    62c0:	9e 52 95 fc 	l.addi r18,r18,-27140
    62c4:	1a 20 00 01 	l.movhi r17,0x1
    62c8:	18 80 00 00 	l.movhi r4,0x0
    62cc:	e0 72 90 04 	l.or r3,r18,r18
    62d0:	e3 0b 58 04 	l.or r24,r11,r11
    62d4:	04 00 00 97 	l.jal 6530 <or1k_sync_cas>
    62d8:	84 b1 90 70 	l.lwz r5,-28560(r17)
    62dc:	86 12 00 00 	l.lwz r16,0(r18)
    62e0:	e0 72 90 04 	l.or r3,r18,r18
    62e4:	e0 b0 a0 00 	l.add r5,r16,r20
    62e8:	04 00 00 92 	l.jal 6530 <or1k_sync_cas>
    62ec:	e0 90 80 04 	l.or r4,r16,r16
    62f0:	e4 2b 80 00 	l.sfne r11,r16
    62f4:	13 ff ff fa 	l.bf 62dc <_sbrk_r+0x4c>
    62f8:	e0 78 c0 04 	l.or r3,r24,r24
    62fc:	04 00 01 15 	l.jal 6750 <or1k_timer_restore>
    6300:	d4 01 58 00 	l.sw 0(r1),r11
    6304:	07 ff ff a5 	l.jal 6198 <or1k_interrupts_restore>
    6308:	e0 76 b0 04 	l.or r3,r22,r22
    630c:	85 61 00 00 	l.lwz r11,0(r1)
    6310:	86 01 00 04 	l.lwz r16,4(r1)
    6314:	86 41 00 08 	l.lwz r18,8(r1)
    6318:	86 81 00 0c 	l.lwz r20,12(r1)
    631c:	86 c1 00 10 	l.lwz r22,16(r1)
    6320:	87 01 00 14 	l.lwz r24,20(r1)
    6324:	85 21 00 18 	l.lwz r9,24(r1)
    6328:	44 00 48 00 	l.jr r9
    632c:	9c 21 00 1c 	l.addi r1,r1,28

00006330 <_or1k_libc_impure_init>:
    6330:	9c 21 ff d8 	l.addi r1,r1,-40
    6334:	d4 01 70 00 	l.sw 0(r1),r14
    6338:	a9 c0 04 24 	l.ori r14,r0,0x424
    633c:	d4 01 d0 18 	l.sw 24(r1),r26
    6340:	e0 ae 70 04 	l.or r5,r14,r14
    6344:	1b 40 00 01 	l.movhi r26,0x1
    6348:	18 80 00 00 	l.movhi r4,0x0
    634c:	d4 01 80 04 	l.sw 4(r1),r16
    6350:	d4 01 90 08 	l.sw 8(r1),r18
    6354:	d4 01 a0 0c 	l.sw 12(r1),r20
    6358:	d4 01 b0 10 	l.sw 16(r1),r22
    635c:	d4 01 c0 14 	l.sw 20(r1),r24
    6360:	d4 01 e0 1c 	l.sw 28(r1),r28
    6364:	d4 01 f0 20 	l.sw 32(r1),r30
    6368:	d4 01 48 24 	l.sw 36(r1),r9
    636c:	84 7a 88 38 	l.lwz r3,-30664(r26)
    6370:	07 ff f7 a8 	l.jal 4210 <memset>
    6374:	1b 00 33 0e 	l.movhi r24,0x330e
    6378:	1a c0 12 34 	l.movhi r22,0x1234
    637c:	1a 80 de ec 	l.movhi r20,0xdeec
    6380:	86 3a 88 38 	l.lwz r17,-30664(r26)
    6384:	ab 18 ab cd 	l.ori r24,r24,0xabcd
    6388:	9e f1 02 ec 	l.addi r23,r17,748
    638c:	9e b1 03 54 	l.addi r21,r17,852
    6390:	9e 71 03 bc 	l.addi r19,r17,956
    6394:	aa d6 e6 6d 	l.ori r22,r22,0xe66d
    6398:	aa 94 00 05 	l.ori r20,r20,0x5
    639c:	ab 80 00 0b 	l.ori r28,r0,0xb
    63a0:	1a 40 00 00 	l.movhi r18,0x0
    63a4:	aa 00 00 01 	l.ori r16,r0,0x1
    63a8:	1b c0 00 01 	l.movhi r30,0x1
    63ac:	d4 11 b8 04 	l.sw 4(r17),r23
    63b0:	d4 11 a8 08 	l.sw 8(r17),r21
    63b4:	d4 11 98 0c 	l.sw 12(r17),r19
    63b8:	d4 11 90 a4 	l.sw 164(r17),r18
    63bc:	d4 11 80 a8 	l.sw 168(r17),r16
    63c0:	d4 11 c0 ac 	l.sw 172(r17),r24
    63c4:	d4 11 b0 b0 	l.sw 176(r17),r22
    63c8:	d4 11 a0 b4 	l.sw 180(r17),r20
    63cc:	dc 11 e0 b8 	l.sh 184(r17),r28
    63d0:	e0 ae 70 04 	l.or r5,r14,r14
    63d4:	18 80 00 00 	l.movhi r4,0x0
    63d8:	07 ff f7 8e 	l.jal 4210 <memset>
    63dc:	84 7e 90 74 	l.lwz r3,-28556(r30)
    63e0:	86 3e 90 74 	l.lwz r17,-28556(r30)
    63e4:	9f 31 02 ec 	l.addi r25,r17,748
    63e8:	9e f1 03 54 	l.addi r23,r17,852
    63ec:	9e b1 03 bc 	l.addi r21,r17,956
    63f0:	d4 11 90 a4 	l.sw 164(r17),r18
    63f4:	d4 11 80 a8 	l.sw 168(r17),r16
    63f8:	d4 11 c0 ac 	l.sw 172(r17),r24
    63fc:	d4 11 b0 b0 	l.sw 176(r17),r22
    6400:	d4 11 a0 b4 	l.sw 180(r17),r20
    6404:	dc 11 e0 b8 	l.sh 184(r17),r28
    6408:	d4 11 c8 04 	l.sw 4(r17),r25
    640c:	d4 11 b8 08 	l.sw 8(r17),r23
    6410:	d4 11 a8 0c 	l.sw 12(r17),r21
    6414:	1a 20 00 01 	l.movhi r17,0x1
    6418:	86 7a 88 38 	l.lwz r19,-30664(r26)
    641c:	d6 51 9e 10 	l.sw -27120(r17),r19
    6420:	1a 20 00 01 	l.movhi r17,0x1
    6424:	d6 51 9e 0c 	l.sw -27124(r17),r19
    6428:	85 c1 00 00 	l.lwz r14,0(r1)
    642c:	86 01 00 04 	l.lwz r16,4(r1)
    6430:	86 41 00 08 	l.lwz r18,8(r1)
    6434:	86 81 00 0c 	l.lwz r20,12(r1)
    6438:	86 c1 00 10 	l.lwz r22,16(r1)
    643c:	87 01 00 14 	l.lwz r24,20(r1)
    6440:	87 41 00 18 	l.lwz r26,24(r1)
    6444:	87 81 00 1c 	l.lwz r28,28(r1)
    6448:	87 c1 00 20 	l.lwz r30,32(r1)
    644c:	85 21 00 24 	l.lwz r9,36(r1)
    6450:	44 00 48 00 	l.jr r9
    6454:	9c 21 00 28 	l.addi r1,r1,40

00006458 <_or1k_libc_getreent>:
    6458:	1a 20 00 01 	l.movhi r17,0x1
    645c:	44 00 48 00 	l.jr r9
    6460:	85 71 96 0c 	l.lwz r11,-27124(r17)

00006464 <_or1k_reent_init>:
    6464:	44 00 48 00 	l.jr r9
    6468:	15 00 00 00 	l.nop 0x0

0000646c <_or1k_init>:
    646c:	9c 21 ff fc 	l.addi r1,r1,-4
    6470:	d4 01 48 00 	l.sw 0(r1),r9
    6474:	07 ff ff fc 	l.jal 6464 <_or1k_reent_init>
    6478:	15 00 00 00 	l.nop 0x0
    647c:	1a 20 00 00 	l.movhi r17,0x0
    6480:	9e 31 61 c8 	l.addi r17,r17,25032
    6484:	1a 60 00 01 	l.movhi r19,0x1
    6488:	d6 53 8e 40 	l.sw -27072(r19),r17
    648c:	1a 20 00 01 	l.movhi r17,0x1
    6490:	d6 51 06 14 	l.sw -27116(r17),r0
    6494:	85 21 00 00 	l.lwz r9,0(r1)
    6498:	44 00 48 00 	l.jr r9
    649c:	9c 21 00 04 	l.addi r1,r1,4

000064a0 <or1k_critical_begin>:
    64a0:	9c 21 ff f8 	l.addi r1,r1,-8
    64a4:	d4 01 80 00 	l.sw 0(r1),r16
    64a8:	d4 01 48 04 	l.sw 4(r1),r9
    64ac:	07 ff ff 32 	l.jal 6174 <or1k_interrupts_disable>
    64b0:	15 00 00 00 	l.nop 0x0
    64b4:	e2 0b 58 04 	l.or r16,r11,r11
    64b8:	04 00 00 9d 	l.jal 672c <or1k_timer_disable>
    64bc:	e2 10 80 00 	l.add r16,r16,r16
    64c0:	e1 70 58 04 	l.or r11,r16,r11
    64c4:	85 21 00 04 	l.lwz r9,4(r1)
    64c8:	86 01 00 00 	l.lwz r16,0(r1)
    64cc:	44 00 48 00 	l.jr r9
    64d0:	9c 21 00 08 	l.addi r1,r1,8

000064d4 <or1k_critical_end>:
    64d4:	9c 21 ff f8 	l.addi r1,r1,-8
    64d8:	d4 01 80 00 	l.sw 0(r1),r16
    64dc:	e2 03 18 04 	l.or r16,r3,r3
    64e0:	d4 01 48 04 	l.sw 4(r1),r9
    64e4:	04 00 00 9b 	l.jal 6750 <or1k_timer_restore>
    64e8:	a4 63 00 01 	l.andi r3,r3,0x1
    64ec:	aa 20 00 01 	l.ori r17,r0,0x1
    64f0:	e0 70 88 48 	l.srl r3,r16,r17
    64f4:	85 21 00 04 	l.lwz r9,4(r1)
    64f8:	86 01 00 00 	l.lwz r16,0(r1)
    64fc:	e0 63 88 03 	l.and r3,r3,r17
    6500:	03 ff ff 26 	l.j 6198 <or1k_interrupts_restore>
    6504:	9c 21 00 08 	l.addi r1,r1,8

00006508 <or1k_has_multicore_support>:
    6508:	44 00 48 00 	l.jr r9
    650c:	e1 60 00 04 	l.or r11,r0,r0

00006510 <or1k_coreid>:
    6510:	44 00 48 00 	l.jr r9
    6514:	e1 60 00 04 	l.or r11,r0,r0

00006518 <or1k_numcores>:
    6518:	44 00 48 00 	l.jr r9
    651c:	a9 60 00 01 	l.ori r11,r0,0x1

00006520 <or1k_sync_ll>:
    6520:	44 00 48 00 	l.jr r9
    6524:	85 63 00 00 	l.lwz r11,0(r3)

00006528 <or1k_sync_sc>:
    6528:	44 00 48 00 	l.jr r9
    652c:	d4 03 20 00 	l.sw 0(r3),r4

00006530 <or1k_sync_cas>:
    6530:	85 63 00 00 	l.lwz r11,0(r3)
    6534:	e4 0b 20 00 	l.sfeq r11,r4
    6538:	0c 00 00 03 	l.bnf 6544 <.or1k_sync_cas_done>
    653c:	15 00 00 00 	l.nop 0x0
    6540:	d4 03 28 00 	l.sw 0(r3),r5

00006544 <.or1k_sync_cas_done>:
    6544:	44 00 48 00 	l.jr r9
    6548:	15 00 00 00 	l.nop 0x0

0000654c <or1k_sync_tsl>:
    654c:	e0 80 00 04 	l.or r4,r0,r0
    6550:	03 ff ff f8 	l.j 6530 <or1k_sync_cas>
    6554:	9c a0 00 01 	l.addi r5,r0,1

00006558 <or1k_exception_handler_add>:
    6558:	9c 63 ff fe 	l.addi r3,r3,-2
    655c:	aa 20 00 02 	l.ori r17,r0,0x2
    6560:	e2 23 88 08 	l.sll r17,r3,r17
    6564:	18 60 00 01 	l.movhi r3,0x1
    6568:	9c 63 96 28 	l.addi r3,r3,-27096
    656c:	e0 63 88 00 	l.add r3,r3,r17
    6570:	44 00 48 00 	l.jr r9
    6574:	d4 03 20 00 	l.sw 0(r3),r4

00006578 <_or1k_timer_interrupt_handler>:
    6578:	1a 60 00 01 	l.movhi r19,0x1
    657c:	86 33 96 00 	l.lwz r17,-27136(r19)
    6580:	9e 31 00 01 	l.addi r17,r17,1
    6584:	d6 53 8e 00 	l.sw -27136(r19),r17
    6588:	aa a0 50 00 	l.ori r21,r0,0x5000
    658c:	b6 35 00 00 	l.mfspr r17,r21,0x0
    6590:	1a 60 2f ff 	l.movhi r19,0x2fff
    6594:	aa 73 ff ff 	l.ori r19,r19,0xffff
    6598:	e2 31 98 03 	l.and r17,r17,r19
    659c:	1a 60 60 00 	l.movhi r19,0x6000
    65a0:	e2 31 98 04 	l.or r17,r17,r19
    65a4:	c0 15 88 00 	l.mtspr r21,r17,0x0
    65a8:	44 00 48 00 	l.jr r9
    65ac:	15 00 00 00 	l.nop 0x0

000065b0 <or1k_timer_init>:
    65b0:	9c 21 ff f4 	l.addi r1,r1,-12
    65b4:	d4 01 80 00 	l.sw 0(r1),r16
    65b8:	d4 01 90 04 	l.sw 4(r1),r18
    65bc:	d4 01 48 08 	l.sw 8(r1),r9
    65c0:	aa 00 00 01 	l.ori r16,r0,0x1
    65c4:	b6 30 00 00 	l.mfspr r17,r16,0x0
    65c8:	aa 60 00 0a 	l.ori r19,r0,0xa
    65cc:	e2 31 98 48 	l.srl r17,r17,r19
    65d0:	e2 31 80 03 	l.and r17,r17,r16
    65d4:	1a 60 00 00 	l.movhi r19,0x0
    65d8:	e4 11 98 00 	l.sfeq r17,r19
    65dc:	10 00 00 1c 	l.bf 664c <or1k_timer_init+0x9c>
    65e0:	1a 20 00 00 	l.movhi r17,0x0
    65e4:	86 31 22 6c 	l.lwz r17,8812(r17)
    65e8:	e0 71 1b 0a 	l.divu r3,r17,r3
    65ec:	1a 20 0f ff 	l.movhi r17,0xfff
    65f0:	1a 60 00 01 	l.movhi r19,0x1
    65f4:	aa 31 ff ff 	l.ori r17,r17,0xffff
    65f8:	e0 63 88 03 	l.and r3,r3,r17
    65fc:	9e 53 96 00 	l.addi r18,r19,-27136
    6600:	d4 12 18 04 	l.sw 4(r18),r3
    6604:	aa 20 50 00 	l.ori r17,r0,0x5000
    6608:	c0 11 18 00 	l.mtspr r17,r3,0x0
    660c:	18 80 00 00 	l.movhi r4,0x0
    6610:	9c 84 65 78 	l.addi r4,r4,25976
    6614:	a8 60 00 05 	l.ori r3,r0,0x5
    6618:	d6 53 06 00 	l.sw -27136(r19),r0
    661c:	07 ff ff cf 	l.jal 6558 <or1k_exception_handler_add>
    6620:	15 00 00 00 	l.nop 0x0
    6624:	1a 60 00 00 	l.movhi r19,0x0
    6628:	d4 12 80 08 	l.sw 8(r18),r16
    662c:	aa 20 50 01 	l.ori r17,r0,0x5001
    6630:	c0 11 98 00 	l.mtspr r17,r19,0x0
    6634:	19 60 00 00 	l.movhi r11,0x0
    6638:	86 01 00 00 	l.lwz r16,0(r1)
    663c:	86 41 00 04 	l.lwz r18,4(r1)
    6640:	85 21 00 08 	l.lwz r9,8(r1)
    6644:	44 00 48 00 	l.jr r9
    6648:	9c 21 00 0c 	l.addi r1,r1,12
    664c:	03 ff ff fb 	l.j 6638 <or1k_timer_init+0x88>
    6650:	ad 60 ff ff 	l.xori r11,r0,-1

00006654 <or1k_timer_set_period>:
    6654:	1a 20 00 00 	l.movhi r17,0x0
    6658:	86 31 22 6c 	l.lwz r17,8812(r17)
    665c:	e0 71 1b 0a 	l.divu r3,r17,r3
    6660:	1a 20 0f ff 	l.movhi r17,0xfff
    6664:	aa 31 ff ff 	l.ori r17,r17,0xffff
    6668:	e0 63 88 03 	l.and r3,r3,r17
    666c:	aa 60 50 00 	l.ori r19,r0,0x5000
    6670:	b6 33 00 00 	l.mfspr r17,r19,0x0
    6674:	1a a0 f0 00 	l.movhi r21,0xf000
    6678:	e2 31 a8 03 	l.and r17,r17,r21
    667c:	e2 31 18 04 	l.or r17,r17,r3
    6680:	c0 13 88 00 	l.mtspr r19,r17,0x0
    6684:	1a 20 00 01 	l.movhi r17,0x1
    6688:	44 00 48 00 	l.jr r9
    668c:	d6 51 1e 04 	l.sw -27132(r17),r3

00006690 <or1k_timer_set_handler>:
    6690:	e0 83 18 04 	l.or r4,r3,r3
    6694:	03 ff ff b1 	l.j 6558 <or1k_exception_handler_add>
    6698:	a8 60 00 05 	l.ori r3,r0,0x5

0000669c <or1k_timer_set_mode>:
    669c:	1a 20 00 01 	l.movhi r17,0x1
    66a0:	d6 51 1e 08 	l.sw -27128(r17),r3
    66a4:	aa 60 50 00 	l.ori r19,r0,0x5000
    66a8:	b6 33 00 00 	l.mfspr r17,r19,0x0
    66ac:	aa e0 00 1e 	l.ori r23,r0,0x1e
    66b0:	e2 b1 b8 48 	l.srl r21,r17,r23
    66b4:	1b 20 00 00 	l.movhi r25,0x0
    66b8:	e4 15 c8 00 	l.sfeq r21,r25
    66bc:	10 00 00 07 	l.bf 66d8 <or1k_timer_set_mode+0x3c>
    66c0:	1a a0 3f ff 	l.movhi r21,0x3fff
    66c4:	aa b5 ff ff 	l.ori r21,r21,0xffff
    66c8:	e2 31 a8 03 	l.and r17,r17,r21
    66cc:	e0 63 b8 08 	l.sll r3,r3,r23
    66d0:	e0 71 18 04 	l.or r3,r17,r3
    66d4:	c0 13 18 00 	l.mtspr r19,r3,0x0
    66d8:	44 00 48 00 	l.jr r9
    66dc:	15 00 00 00 	l.nop 0x0

000066e0 <or1k_timer_enable>:
    66e0:	aa a0 50 00 	l.ori r21,r0,0x5000
    66e4:	b6 35 00 00 	l.mfspr r17,r21,0x0
    66e8:	1a 60 3f ff 	l.movhi r19,0x3fff
    66ec:	aa 73 ff ff 	l.ori r19,r19,0xffff
    66f0:	e2 71 98 03 	l.and r19,r17,r19
    66f4:	aa e0 00 1e 	l.ori r23,r0,0x1e
    66f8:	1a 20 00 01 	l.movhi r17,0x1
    66fc:	86 31 96 08 	l.lwz r17,-27128(r17)
    6700:	e2 31 b8 08 	l.sll r17,r17,r23
    6704:	e2 31 98 04 	l.or r17,r17,r19
    6708:	1a 60 20 00 	l.movhi r19,0x2000
    670c:	e2 31 98 04 	l.or r17,r17,r19
    6710:	c0 15 88 00 	l.mtspr r21,r17,0x0
    6714:	aa 60 00 11 	l.ori r19,r0,0x11
    6718:	b6 33 00 00 	l.mfspr r17,r19,0x0
    671c:	aa 31 00 02 	l.ori r17,r17,0x2
    6720:	c0 13 88 00 	l.mtspr r19,r17,0x0
    6724:	44 00 48 00 	l.jr r9
    6728:	15 00 00 00 	l.nop 0x0

0000672c <or1k_timer_disable>:
    672c:	aa 60 00 11 	l.ori r19,r0,0x11
    6730:	b5 73 00 00 	l.mfspr r11,r19,0x0
    6734:	ae 20 ff fd 	l.xori r17,r0,-3
    6738:	e2 2b 88 03 	l.and r17,r11,r17
    673c:	c0 13 88 00 	l.mtspr r19,r17,0x0
    6740:	aa 20 00 01 	l.ori r17,r0,0x1
    6744:	e1 6b 88 48 	l.srl r11,r11,r17
    6748:	44 00 48 00 	l.jr r9
    674c:	e1 6b 88 03 	l.and r11,r11,r17

00006750 <or1k_timer_restore>:
    6750:	aa 20 00 11 	l.ori r17,r0,0x11
    6754:	b6 31 00 00 	l.mfspr r17,r17,0x0
    6758:	ae 60 ff fd 	l.xori r19,r0,-3
    675c:	e2 31 98 03 	l.and r17,r17,r19
    6760:	1a 60 00 00 	l.movhi r19,0x0
    6764:	e4 03 98 00 	l.sfeq r3,r19
    6768:	10 00 00 03 	l.bf 6774 <or1k_timer_restore+0x24>
    676c:	aa 60 00 11 	l.ori r19,r0,0x11
    6770:	aa 31 00 02 	l.ori r17,r17,0x2
    6774:	c0 13 88 00 	l.mtspr r19,r17,0x0
    6778:	44 00 48 00 	l.jr r9
    677c:	15 00 00 00 	l.nop 0x0

00006780 <or1k_timer_pause>:
    6780:	aa a0 50 00 	l.ori r21,r0,0x5000
    6784:	b6 35 00 00 	l.mfspr r17,r21,0x0
    6788:	1a 60 3f ff 	l.movhi r19,0x3fff
    678c:	aa 73 ff ff 	l.ori r19,r19,0xffff
    6790:	e2 31 98 03 	l.and r17,r17,r19
    6794:	c0 15 88 00 	l.mtspr r21,r17,0x0
    6798:	44 00 48 00 	l.jr r9
    679c:	15 00 00 00 	l.nop 0x0

000067a0 <or1k_timer_reset>:
    67a0:	aa a0 50 00 	l.ori r21,r0,0x5000
    67a4:	b6 35 00 00 	l.mfspr r17,r21,0x0
    67a8:	1a 60 ef ff 	l.movhi r19,0xefff
    67ac:	aa 73 ff ff 	l.ori r19,r19,0xffff
    67b0:	e2 31 98 03 	l.and r17,r17,r19
    67b4:	c0 15 88 00 	l.mtspr r21,r17,0x0
    67b8:	aa 20 50 01 	l.ori r17,r0,0x5001
    67bc:	1a 60 00 00 	l.movhi r19,0x0
    67c0:	c0 11 98 00 	l.mtspr r17,r19,0x0
    67c4:	44 00 48 00 	l.jr r9
    67c8:	15 00 00 00 	l.nop 0x0

000067cc <or1k_timer_get_ticks>:
    67cc:	1a 20 00 01 	l.movhi r17,0x1
    67d0:	85 71 96 00 	l.lwz r11,-27136(r17)
    67d4:	44 00 48 00 	l.jr r9
    67d8:	15 00 00 00 	l.nop 0x0

000067dc <or1k_timer_reset_ticks>:
    67dc:	1a 20 00 01 	l.movhi r17,0x1
    67e0:	d6 51 06 00 	l.sw -27136(r17),r0
    67e4:	44 00 48 00 	l.jr r9
    67e8:	15 00 00 00 	l.nop 0x0

000067ec <__errno>:
    67ec:	9c 21 ff fc 	l.addi r1,r1,-4
    67f0:	d4 01 48 00 	l.sw 0(r1),r9
    67f4:	07 ff f3 1f 	l.jal 3470 <__getreent>
    67f8:	15 00 00 00 	l.nop 0x0
    67fc:	85 21 00 00 	l.lwz r9,0(r1)
    6800:	44 00 48 00 	l.jr r9
    6804:	9c 21 00 04 	l.addi r1,r1,4
